;******************************************************************************
;* TMS320C6x C/C++ Codegen                                         PC v6.1.22 *
;* Date/Time created: Mon Feb 05 10:17:19 2018                                *
;******************************************************************************
	.compiler_opts --c64p_l1d_workaround=default --endian=little --hll_source=on --mem_model:code=near --mem_model:const=data --mem_model:data=far --silicon_version=6400 --symdebug:dwarf 

;******************************************************************************
;* GLOBAL FILE PARAMETERS                                                     *
;*                                                                            *
;*   Architecture      : TMS320C64xx                                          *
;*   Optimization      : Disabled                                             *
;*   Optimizing for    : Compile time, Ease of Development                    *
;*                       Based on options: no -o, no -ms                      *
;*   Endian            : Little                                               *
;*   Interrupt Thrshld : Disabled                                             *
;*   Data Access Model : Far                                                  *
;*   Pipelining        : Disabled                                             *
;*   Memory Aliases    : Presume are aliases (pessimistic)                    *
;*   Debug Info        : DWARF Debug                                          *
;*                                                                            *
;******************************************************************************

	.asg	A15, FP
	.asg	B14, DP
	.asg	B15, SP
	.global	$bss


$C$DW$CU	.dwtag  DW_TAG_compile_unit
	.dwattr $C$DW$CU, DW_AT_name("test_c.cpp")
	.dwattr $C$DW$CU, DW_AT_producer("TMS320C6x C/C++ Codegen PC v6.1.22 Copyright (c) 1996-2012 Texas Instruments Incorporated")
	.dwattr $C$DW$CU, DW_AT_TI_version(0x01)
	.dwattr $C$DW$CU, DW_AT_comp_dir("C:\1901VC1T_Inteltech\3rdPartyLIB\dsp_core\C6000\tpo_amoeba\source")

$C$DW$1	.dwtag  DW_TAG_subprogram, DW_AT_name("memcpy")
	.dwattr $C$DW$1, DW_AT_TI_symbol_name("_memcpy")
	.dwattr $C$DW$1, DW_AT_type(*$C$DW$T$3)
	.dwattr $C$DW$1, DW_AT_declaration
	.dwattr $C$DW$1, DW_AT_external
$C$DW$2	.dwtag  DW_TAG_formal_parameter
	.dwattr $C$DW$2, DW_AT_type(*$C$DW$T$3)
$C$DW$3	.dwtag  DW_TAG_formal_parameter
	.dwattr $C$DW$3, DW_AT_type(*$C$DW$T$94)
$C$DW$4	.dwtag  DW_TAG_formal_parameter
	.dwattr $C$DW$4, DW_AT_type(*$C$DW$T$11)
	.dwendtag $C$DW$1


$C$DW$172	.dwtag  DW_TAG_subprogram, DW_AT_name("_amem4")
	.dwattr $C$DW$172, DW_AT_TI_symbol_name("__amem4")
	.dwattr $C$DW$172, DW_AT_type(*$C$DW$T$751)
	.dwattr $C$DW$172, DW_AT_declaration
	.dwattr $C$DW$172, DW_AT_external
$C$DW$173	.dwtag  DW_TAG_formal_parameter
	.dwattr $C$DW$173, DW_AT_type(*$C$DW$T$3)
	.dwendtag $C$DW$172


$C$DW$174	.dwtag  DW_TAG_subprogram, DW_AT_name("_mem4")
	.dwattr $C$DW$174, DW_AT_TI_symbol_name("__mem4")
	.dwattr $C$DW$174, DW_AT_type(*$C$DW$T$751)
	.dwattr $C$DW$174, DW_AT_declaration
	.dwattr $C$DW$174, DW_AT_external
$C$DW$175	.dwtag  DW_TAG_formal_parameter
	.dwattr $C$DW$175, DW_AT_type(*$C$DW$T$3)
	.dwendtag $C$DW$174


$C$DW$176	.dwtag  DW_TAG_subprogram, DW_AT_name("memset")
	.dwattr $C$DW$176, DW_AT_TI_symbol_name("_memset")
	.dwattr $C$DW$176, DW_AT_type(*$C$DW$T$3)
	.dwattr $C$DW$176, DW_AT_declaration
	.dwattr $C$DW$176, DW_AT_external
$C$DW$177	.dwtag  DW_TAG_formal_parameter
	.dwattr $C$DW$177, DW_AT_type(*$C$DW$T$3)
$C$DW$178	.dwtag  DW_TAG_formal_parameter
	.dwattr $C$DW$178, DW_AT_type(*$C$DW$T$10)
$C$DW$179	.dwtag  DW_TAG_formal_parameter
	.dwattr $C$DW$179, DW_AT_type(*$C$DW$T$682)
	.dwendtag $C$DW$176


$C$DW$180	.dwtag  DW_TAG_subprogram, DW_AT_name("memcmp")
	.dwattr $C$DW$180, DW_AT_TI_symbol_name("_memcmp")
	.dwattr $C$DW$180, DW_AT_type(*$C$DW$T$10)
	.dwattr $C$DW$180, DW_AT_declaration
	.dwattr $C$DW$180, DW_AT_external
$C$DW$181	.dwtag  DW_TAG_formal_parameter
	.dwattr $C$DW$181, DW_AT_type(*$C$DW$T$94)
$C$DW$182	.dwtag  DW_TAG_formal_parameter
	.dwattr $C$DW$182, DW_AT_type(*$C$DW$T$94)
$C$DW$183	.dwtag  DW_TAG_formal_parameter
	.dwattr $C$DW$183, DW_AT_type(*$C$DW$T$682)
	.dwendtag $C$DW$180


$C$DW$184	.dwtag  DW_TAG_subprogram, DW_AT_name("EDMA_intClear")
	.dwattr $C$DW$184, DW_AT_TI_symbol_name("_EDMA_intClear__FUi")
	.dwattr $C$DW$184, DW_AT_declaration
	.dwattr $C$DW$184, DW_AT_external
$C$DW$185	.dwtag  DW_TAG_formal_parameter
	.dwattr $C$DW$185, DW_AT_type(*$C$DW$T$47)
	.dwendtag $C$DW$184


$C$DW$186	.dwtag  DW_TAG_subprogram, DW_AT_name("EDMA_intTest")
	.dwattr $C$DW$186, DW_AT_TI_symbol_name("_EDMA_intTest__FUi")
	.dwattr $C$DW$186, DW_AT_type(*$C$DW$T$47)
	.dwattr $C$DW$186, DW_AT_declaration
	.dwattr $C$DW$186, DW_AT_external
$C$DW$187	.dwtag  DW_TAG_formal_parameter
	.dwattr $C$DW$187, DW_AT_type(*$C$DW$T$47)
	.dwendtag $C$DW$186


$C$DW$188	.dwtag  DW_TAG_subprogram, DW_AT_name("EDMA_qdmaConfigArgs")
	.dwattr $C$DW$188, DW_AT_TI_symbol_name("_EDMA_qdmaConfigArgs__FUiN41")
	.dwattr $C$DW$188, DW_AT_declaration
	.dwattr $C$DW$188, DW_AT_external
$C$DW$189	.dwtag  DW_TAG_formal_parameter
	.dwattr $C$DW$189, DW_AT_type(*$C$DW$T$47)
$C$DW$190	.dwtag  DW_TAG_formal_parameter
	.dwattr $C$DW$190, DW_AT_type(*$C$DW$T$47)
$C$DW$191	.dwtag  DW_TAG_formal_parameter
	.dwattr $C$DW$191, DW_AT_type(*$C$DW$T$47)
$C$DW$192	.dwtag  DW_TAG_formal_parameter
	.dwattr $C$DW$192, DW_AT_type(*$C$DW$T$47)
$C$DW$193	.dwtag  DW_TAG_formal_parameter
	.dwattr $C$DW$193, DW_AT_type(*$C$DW$T$47)
	.dwendtag $C$DW$188


$C$DW$194	.dwtag  DW_TAG_subprogram, DW_AT_name("analysis_hash_fwmem")
	.dwattr $C$DW$194, DW_AT_TI_symbol_name("_analysis_hash_fwmem__FP11hash_window")
	.dwattr $C$DW$194, DW_AT_type(*$C$DW$T$47)
	.dwattr $C$DW$194, DW_AT_declaration
	.dwattr $C$DW$194, DW_AT_external
$C$DW$195	.dwtag  DW_TAG_formal_parameter
	.dwattr $C$DW$195, DW_AT_type(*$C$DW$T$733)
	.dwendtag $C$DW$194

$C$DW$196	.dwtag  DW_TAG_variable, DW_AT_name("__syscall_tab")
	.dwattr $C$DW$196, DW_AT_TI_symbol_name("___syscall_tab")
	.dwattr $C$DW$196, DW_AT_type(*$C$DW$T$680)
	.dwattr $C$DW$196, DW_AT_declaration
	.dwattr $C$DW$196, DW_AT_external
$C$DW$197	.dwtag  DW_TAG_variable, DW_AT_name("hwindow")
	.dwattr $C$DW$197, DW_AT_TI_symbol_name("_hwindow")
	.dwattr $C$DW$197, DW_AT_type(*$C$DW$T$772)
	.dwattr $C$DW$197, DW_AT_declaration
	.dwattr $C$DW$197, DW_AT_external
$C$DW$198	.dwtag  DW_TAG_variable, DW_AT_name("sh_mem_write")
	.dwattr $C$DW$198, DW_AT_TI_symbol_name("_sh_mem_write")
	.dwattr $C$DW$198, DW_AT_type(*$C$DW$T$3)
	.dwattr $C$DW$198, DW_AT_declaration
	.dwattr $C$DW$198, DW_AT_external
$C$DW$199	.dwtag  DW_TAG_variable, DW_AT_name("sh_mem_read_proc")
	.dwattr $C$DW$199, DW_AT_TI_symbol_name("_sh_mem_read_proc")
	.dwattr $C$DW$199, DW_AT_type(*$C$DW$T$3)
	.dwattr $C$DW$199, DW_AT_declaration
	.dwattr $C$DW$199, DW_AT_external
$C$DW$200	.dwtag  DW_TAG_variable, DW_AT_name("sh_mem_read_crypt")
	.dwattr $C$DW$200, DW_AT_TI_symbol_name("_sh_mem_read_crypt")
	.dwattr $C$DW$200, DW_AT_type(*$C$DW$T$3)
	.dwattr $C$DW$200, DW_AT_declaration
	.dwattr $C$DW$200, DW_AT_external
$C$DW$201	.dwtag  DW_TAG_variable, DW_AT_name("sh_mem_read_proc2")
	.dwattr $C$DW$201, DW_AT_TI_symbol_name("_sh_mem_read_proc2")
	.dwattr $C$DW$201, DW_AT_type(*$C$DW$T$3)
	.dwattr $C$DW$201, DW_AT_declaration
	.dwattr $C$DW$201, DW_AT_external
$C$DW$202	.dwtag  DW_TAG_variable, DW_AT_name("sh_mem_read_crypt2")
	.dwattr $C$DW$202, DW_AT_TI_symbol_name("_sh_mem_read_crypt2")
	.dwattr $C$DW$202, DW_AT_type(*$C$DW$T$3)
	.dwattr $C$DW$202, DW_AT_declaration
	.dwattr $C$DW$202, DW_AT_external
$C$DW$203	.dwtag  DW_TAG_variable, DW_AT_name("gl_result")
	.dwattr $C$DW$203, DW_AT_TI_symbol_name("_gl_result")
	.dwattr $C$DW$203, DW_AT_type(*$C$DW$T$398)
	.dwattr $C$DW$203, DW_AT_declaration
	.dwattr $C$DW$203, DW_AT_external
$C$DW$204	.dwtag  DW_TAG_variable, DW_AT_name("Start_dozu_nagr")
	.dwattr $C$DW$204, DW_AT_TI_symbol_name("_Start_dozu_nagr")
	.dwattr $C$DW$204, DW_AT_type(*$C$DW$T$28)
	.dwattr $C$DW$204, DW_AT_declaration
	.dwattr $C$DW$204, DW_AT_external
$C$DW$205	.dwtag  DW_TAG_variable, DW_AT_name("sv_msg_open")
	.dwattr $C$DW$205, DW_AT_TI_symbol_name("_sv_msg_open")
	.dwattr $C$DW$205, DW_AT_type(*$C$DW$T$47)
	.dwattr $C$DW$205, DW_AT_declaration
	.dwattr $C$DW$205, DW_AT_external
;	C:\Program Files (x86)\Texas Instruments\C6000 Code Generation Tools 6.1.22\bin\acp6x.exe -@C:\Users\shiluaev\AppData\Local\Temp\0520812 
	.sect	".text"
	.clink
	.global	_QDMA_Read__FPvT1Us

$C$DW$206	.dwtag  DW_TAG_subprogram, DW_AT_name("QDMA_Read")
	.dwattr $C$DW$206, DW_AT_low_pc(_QDMA_Read__FPvT1Us)
	.dwattr $C$DW$206, DW_AT_high_pc(0x00)
	.dwattr $C$DW$206, DW_AT_TI_symbol_name("_QDMA_Read__FPvT1Us")
	.dwattr $C$DW$206, DW_AT_external
	.dwattr $C$DW$206, DW_AT_TI_begin_file("test_c.cpp")
	.dwattr $C$DW$206, DW_AT_TI_begin_line(0x5d)
	.dwattr $C$DW$206, DW_AT_TI_begin_column(0x06)
	.dwpsn	file "test_c.cpp",line 94,column 1,is_stmt,address _QDMA_Read__FPvT1Us

	.dwfde $C$DW$CIE, _QDMA_Read__FPvT1Us
$C$DW$207	.dwtag  DW_TAG_formal_parameter, DW_AT_name("dst")
	.dwattr $C$DW$207, DW_AT_TI_symbol_name("_dst")
	.dwattr $C$DW$207, DW_AT_type(*$C$DW$T$3)
	.dwattr $C$DW$207, DW_AT_location[DW_OP_reg4]
$C$DW$208	.dwtag  DW_TAG_formal_parameter, DW_AT_name("src")
	.dwattr $C$DW$208, DW_AT_TI_symbol_name("_src")
	.dwattr $C$DW$208, DW_AT_type(*$C$DW$T$3)
	.dwattr $C$DW$208, DW_AT_location[DW_OP_reg20]
$C$DW$209	.dwtag  DW_TAG_formal_parameter, DW_AT_name("len")
	.dwattr $C$DW$209, DW_AT_TI_symbol_name("_len")
	.dwattr $C$DW$209, DW_AT_type(*$C$DW$T$28)
	.dwattr $C$DW$209, DW_AT_location[DW_OP_reg6]
;----------------------------------------------------------------------
;  93 | memcpy(((char*)dst+4*l),((char*)src+4*l),ost);                         
;----------------------------------------------------------------------

;******************************************************************************
;* FUNCTION NAME: QDMA_Read(void *, void *, unsigned short)                   *
;*                                                                            *
;*   Regs Modified     : A0,A1,A2,A3,A4,A5,A6,A7,A8,A9,B0,B1,B2,B3,B4,B5,B6,  *
;*                           B7,B8,B9,SP,A16,A17,A18,A19,A20,A21,A22,A23,A24, *
;*                           A25,A26,A27,A28,A29,A30,A31,B16,B17,B18,B19,B20, *
;*                           B21,B22,B23,B24,B25,B26,B27,B28,B29,B30,B31      *
;*   Regs Used         : A0,A1,A2,A3,A4,A5,A6,A7,A8,A9,B0,B1,B2,B3,B4,B5,B6,  *
;*                           B7,B8,B9,SP,A16,A17,A18,A19,A20,A21,A22,A23,A24, *
;*                           A25,A26,A27,A28,A29,A30,A31,B16,B17,B18,B19,B20, *
;*                           B21,B22,B23,B24,B25,B26,B27,B28,B29,B30,B31      *
;*   Local Frame Size  : 0 Args + 16 Auto + 4 Save = 20 byte                  *
;******************************************************************************
_QDMA_Read__FPvT1Us:
;** --------------------------------------------------------------------------*
	.dwcfi	cfa_offset, 0
	.dwcfi	save_reg_to_reg, 228, 19
           STW     .D2T2   B3,*SP--(24)      ; |94| 
	.dwcfi	cfa_offset, 24
	.dwcfi	save_reg_to_mem, 19, 0
$C$DW$210	.dwtag  DW_TAG_variable, DW_AT_name("dst")
	.dwattr $C$DW$210, DW_AT_TI_symbol_name("_dst")
	.dwattr $C$DW$210, DW_AT_type(*$C$DW$T$3)
	.dwattr $C$DW$210, DW_AT_location[DW_OP_breg31 4]
$C$DW$211	.dwtag  DW_TAG_variable, DW_AT_name("src")
	.dwattr $C$DW$211, DW_AT_TI_symbol_name("_src")
	.dwattr $C$DW$211, DW_AT_type(*$C$DW$T$3)
	.dwattr $C$DW$211, DW_AT_location[DW_OP_breg31 8]
$C$DW$212	.dwtag  DW_TAG_variable, DW_AT_name("len")
	.dwattr $C$DW$212, DW_AT_TI_symbol_name("_len")
	.dwattr $C$DW$212, DW_AT_type(*$C$DW$T$28)
	.dwattr $C$DW$212, DW_AT_location[DW_OP_breg31 12]
$C$DW$213	.dwtag  DW_TAG_variable, DW_AT_name("l")
	.dwattr $C$DW$213, DW_AT_TI_symbol_name("_l")
	.dwattr $C$DW$213, DW_AT_type(*$C$DW$T$28)
	.dwattr $C$DW$213, DW_AT_location[DW_OP_breg31 14]
$C$DW$214	.dwtag  DW_TAG_variable, DW_AT_name("ost")
	.dwattr $C$DW$214, DW_AT_TI_symbol_name("_ost")
	.dwattr $C$DW$214, DW_AT_type(*$C$DW$T$10)
	.dwattr $C$DW$214, DW_AT_location[DW_OP_breg31 16]
           STH     .D2T1   A6,*+SP(12)       ; |94| 
           STW     .D2T2   B4,*+SP(8)        ; |94| 
           STW     .D2T1   A4,*+SP(4)        ; |94| 
	.dwpsn	file "test_c.cpp",line 95,column 9,is_stmt
;----------------------------------------------------------------------
;  95 | #else                                                                  
;----------------------------------------------------------------------
           LDHU    .D2T2   *+SP(12),B4       ; |95| 
           NOP             4
           SHR     .S2     B4,1,B5           ; |95| 
           SHRU    .S2     B5,30,B5          ; |95| 
           ADD     .L2     B5,B4,B4          ; |95| 
           SHR     .S2     B4,2,B4           ; |95| 
           STH     .D2T2   B4,*+SP(14)       ; |95| 
	.dwpsn	file "test_c.cpp",line 96,column 6,is_stmt
;----------------------------------------------------------------------
;  96 | */                                                                     
;  97 | #ifdef CHIP_6412                                                       
;----------------------------------------------------------------------
           LDHU    .D2T2   *+SP(12),B4       ; |96| 
           NOP             4
           AND     .L2     3,B4,B4           ; |96| 
           STW     .D2T2   B4,*+SP(16)       ; |96| 
	.dwpsn	file "test_c.cpp",line 98,column 2,is_stmt
;----------------------------------------------------------------------
;  98 | //---------------------------------------------------------------------
;     | -------                                                                
;  99 | void QDMA_Read(void* dst,void* src,uint16 len)                         
;----------------------------------------------------------------------
           LDHU    .D2T2   *+SP(14),B0       ; |98| 
           NOP             4
   [!B0]   BNOP    .S1     $C$L2,5           ; |98| 
           ; BRANCHCC OCCURS {$C$L2}         ; |98| 
;** --------------------------------------------------------------------------*
	.dwpsn	file "test_c.cpp",line 100,column 3,is_stmt
$C$DW$215	.dwtag  DW_TAG_TI_branch
	.dwattr $C$DW$215, DW_AT_low_pc(0x00)
	.dwattr $C$DW$215, DW_AT_name("_EDMA_intClear__FUi")
	.dwattr $C$DW$215, DW_AT_TI_call
           CALL    .S1     _EDMA_intClear__FUi ; |100| 
           ADDKPC  .S2     $C$RL0,B3,3       ; |100| 
           MVK     .L1     0x7,A4            ; |100| 
$C$RL0:    ; CALL OCCURS {_EDMA_intClear__FUi} {0}  ; |100| 
	.dwpsn	file "test_c.cpp",line 101,column 3,is_stmt
;----------------------------------------------------------------------
; 101 | uint16 l=len/4;                                                        
; 102 | int ost=len&0x3;                                                       
; 104 | if(l)                                                                  
;----------------------------------------------------------------------
           LDW     .D2T2   *+SP(4),B6        ; |101| 
$C$DW$216	.dwtag  DW_TAG_TI_branch
	.dwattr $C$DW$216, DW_AT_low_pc(0x00)
	.dwattr $C$DW$216, DW_AT_name("_EDMA_qdmaConfigArgs__FUiN41")
	.dwattr $C$DW$216, DW_AT_TI_call

           CALL    .S1     _EDMA_qdmaConfigArgs__FUiN41 ; |101| 
||         LDHU    .D2T1   *+SP(14),A6       ; |101| 

           LDW     .D2T2   *+SP(8),B4        ; |101| 
           ZERO    .L1     A4                ; |101| 
           ADDKPC  .S2     $C$RL1,B3,1       ; |101| 

           MVKH    .S1     0x1370000,A4      ; |101| 
||         ZERO    .L1     A8                ; |101| 

$C$RL1:    ; CALL OCCURS {_EDMA_qdmaConfigArgs__FUiN41} {0}  ; |101| 
	.dwpsn	file "test_c.cpp",line 105,column 9,is_stmt
;----------------------------------------------------------------------
; 106 | EDMA_intClear(TCCINTNUM_READ);                                         
;----------------------------------------------------------------------
$C$DW$217	.dwtag  DW_TAG_TI_branch
	.dwattr $C$DW$217, DW_AT_low_pc(0x00)
	.dwattr $C$DW$217, DW_AT_name("_EDMA_intTest__FUi")
	.dwattr $C$DW$217, DW_AT_TI_call
           CALL    .S1     _EDMA_intTest__FUi ; |105| 
           ADDKPC  .S2     $C$RL2,B3,3       ; |105| 
           MVK     .L1     0x7,A4            ; |105| 
$C$RL2:    ; CALL OCCURS {_EDMA_intTest__FUi} {0}  ; |105| 
           MV      .L1     A4,A0             ; |105| 
   [ A0]   BNOP    .S1     $C$L2,5           ; |105| 
           ; BRANCHCC OCCURS {$C$L2}         ; |105| 
;*----------------------------------------------------------------------------*
;*   SOFTWARE PIPELINE INFORMATION
;*      Disqualified loop: Software pipelining disabled
;*----------------------------------------------------------------------------*
$C$L1:    
$C$DW$L$_QDMA_Read__FPvT1Us$3$B:
$C$DW$218	.dwtag  DW_TAG_TI_branch
	.dwattr $C$DW$218, DW_AT_low_pc(0x00)
	.dwattr $C$DW$218, DW_AT_name("_EDMA_intTest__FUi")
	.dwattr $C$DW$218, DW_AT_TI_call
           CALL    .S1     _EDMA_intTest__FUi ; |105| 
           ADDKPC  .S2     $C$RL3,B3,3       ; |105| 
           MVK     .L1     0x7,A4            ; |105| 
$C$RL3:    ; CALL OCCURS {_EDMA_intTest__FUi} {0}  ; |105| 
           MV      .L1     A4,A0             ; |105| 
   [!A0]   BNOP    .S1     $C$L1,5           ; |105| 
           ; BRANCHCC OCCURS {$C$L1}         ; |105| 
$C$DW$L$_QDMA_Read__FPvT1Us$3$E:
;** --------------------------------------------------------------------------*
$C$L2:    
	.dwpsn	file "test_c.cpp",line 107,column 2,is_stmt
;----------------------------------------------------------------------
; 107 | EDMA_qdmaConfigArgs(0x01370000,(uint32)src,l,(uint32)dst,0);//Urgent pr
;     | iority                                                                 
;----------------------------------------------------------------------
           LDW     .D2T2   *+SP(16),B0       ; |107| 
           NOP             4
   [!B0]   BNOP    .S1     $C$L3,5           ; |107| 
           ; BRANCHCC OCCURS {$C$L3}         ; |107| 
;** --------------------------------------------------------------------------*
	.dwpsn	file "test_c.cpp",line 108,column 3,is_stmt
;----------------------------------------------------------------------
; 108 | //              EDMA_qdmaConfigArgs(0x21370000,(uint32)src,l,(uint32)ds
;     | t,0);//High priority                                                   
;----------------------------------------------------------------------
           LDHU    .D2T2   *+SP(14),B6       ; |108| 
           LDW     .D2T2   *+SP(4),B7        ; |108| 
           LDHU    .D2T2   *+SP(14),B4       ; |108| 
$C$DW$219	.dwtag  DW_TAG_TI_branch
	.dwattr $C$DW$219, DW_AT_low_pc(0x04)
	.dwattr $C$DW$219, DW_AT_name("_memcpy")
	.dwattr $C$DW$219, DW_AT_TI_call

           LDW     .D2T2   *+SP(8),B5        ; |108| 
||         CALL    .S1     _memcpy           ; |108| 

           LDW     .D2T1   *+SP(16),A6       ; |108| 
           ADDKPC  .S2     $C$RL4,B3,0       ; |108| 
           ADDAW   .D2     B7,B6,B6          ; |108| 
           NOP             1

           MV      .L1X    B6,A4             ; |108| 
||         ADDAW   .D2     B5,B4,B4          ; |108| 

$C$RL4:    ; CALL OCCURS {_memcpy} {0}       ; |108| 
	.dwpsn	file "test_c.cpp",line 109,column 1,is_stmt
;----------------------------------------------------------------------
; 109 | //              EDMA_qdmaConfigArgs(0x41370000,(uint32)src,l,(uint32)ds
;     | t,0);//Medium priority                                                 
;----------------------------------------------------------------------
;** --------------------------------------------------------------------------*
$C$L3:    
           LDW     .D2T2   *++SP(24),B3      ; |109| 
           NOP             4
	.dwcfi	cfa_offset, 0
	.dwcfi	restore_reg, 19
	.dwcfi	cfa_offset, 0
$C$DW$220	.dwtag  DW_TAG_TI_branch
	.dwattr $C$DW$220, DW_AT_low_pc(0x00)
	.dwattr $C$DW$220, DW_AT_TI_return
           RETNOP  .S2     B3,5              ; |109| 
           ; BRANCH OCCURS {B3}              ; |109| 

$C$DW$221	.dwtag  DW_TAG_TI_loop
	.dwattr $C$DW$221, DW_AT_name("C:\1901VC1T_Inteltech\3rdPartyLIB\dsp_core\C6000\tpo_amoeba\source\test_c.asm:$C$L1:1:1517815039")
	.dwattr $C$DW$221, DW_AT_TI_begin_file("test_c.cpp")
	.dwattr $C$DW$221, DW_AT_TI_begin_line(0x69)
	.dwattr $C$DW$221, DW_AT_TI_end_line(0x69)
$C$DW$222	.dwtag  DW_TAG_TI_loop_range
	.dwattr $C$DW$222, DW_AT_low_pc($C$DW$L$_QDMA_Read__FPvT1Us$3$B)
	.dwattr $C$DW$222, DW_AT_high_pc($C$DW$L$_QDMA_Read__FPvT1Us$3$E)
	.dwendtag $C$DW$221

	.dwattr $C$DW$206, DW_AT_TI_end_file("test_c.cpp")
	.dwattr $C$DW$206, DW_AT_TI_end_line(0x6d)
	.dwattr $C$DW$206, DW_AT_TI_end_column(0x01)
	.dwendentry
	.dwendtag $C$DW$206

	.sect	".text"
	.clink
	.global	_ReadDARAM0__FUsPvT1

$C$DW$223	.dwtag  DW_TAG_subprogram, DW_AT_name("ReadDARAM0")
	.dwattr $C$DW$223, DW_AT_low_pc(_ReadDARAM0__FUsPvT1)
	.dwattr $C$DW$223, DW_AT_high_pc(0x00)
	.dwattr $C$DW$223, DW_AT_TI_symbol_name("_ReadDARAM0__FUsPvT1")
	.dwattr $C$DW$223, DW_AT_external
	.dwattr $C$DW$223, DW_AT_TI_begin_file("test_c.cpp")
	.dwattr $C$DW$223, DW_AT_TI_begin_line(0x95)
	.dwattr $C$DW$223, DW_AT_TI_begin_column(0x06)
	.dwpsn	file "test_c.cpp",line 150,column 1,is_stmt,address _ReadDARAM0__FUsPvT1

	.dwfde $C$DW$CIE, _ReadDARAM0__FUsPvT1
$C$DW$224	.dwtag  DW_TAG_formal_parameter, DW_AT_name("addr")
	.dwattr $C$DW$224, DW_AT_TI_symbol_name("_addr")
	.dwattr $C$DW$224, DW_AT_type(*$C$DW$T$28)
	.dwattr $C$DW$224, DW_AT_location[DW_OP_reg4]
$C$DW$225	.dwtag  DW_TAG_formal_parameter, DW_AT_name("buf")
	.dwattr $C$DW$225, DW_AT_TI_symbol_name("_buf")
	.dwattr $C$DW$225, DW_AT_type(*$C$DW$T$3)
	.dwattr $C$DW$225, DW_AT_location[DW_OP_reg20]
$C$DW$226	.dwtag  DW_TAG_formal_parameter, DW_AT_name("len")
	.dwattr $C$DW$226, DW_AT_TI_symbol_name("_len")
	.dwattr $C$DW$226, DW_AT_type(*$C$DW$T$28)
	.dwattr $C$DW$226, DW_AT_location[DW_OP_reg6]

;******************************************************************************
;* FUNCTION NAME: ReadDARAM0(unsigned short, void *, unsigned short)          *
;*                                                                            *
;*   Regs Modified     : A0,A1,A2,A3,A4,A5,A6,A7,A8,A9,B0,B1,B2,B3,B4,B5,B6,  *
;*                           B7,B8,B9,SP,A16,A17,A18,A19,A20,A21,A22,A23,A24, *
;*                           A25,A26,A27,A28,A29,A30,A31,B16,B17,B18,B19,B20, *
;*                           B21,B22,B23,B24,B25,B26,B27,B28,B29,B30,B31      *
;*   Regs Used         : A0,A1,A2,A3,A4,A5,A6,A7,A8,A9,B0,B1,B2,B3,B4,B5,B6,  *
;*                           B7,B8,B9,SP,A16,A17,A18,A19,A20,A21,A22,A23,A24, *
;*                           A25,A26,A27,A28,A29,A30,A31,B16,B17,B18,B19,B20, *
;*                           B21,B22,B23,B24,B25,B26,B27,B28,B29,B30,B31      *
;*   Local Frame Size  : 0 Args + 12 Auto + 4 Save = 16 byte                  *
;******************************************************************************
_ReadDARAM0__FUsPvT1:
;** --------------------------------------------------------------------------*
;----------------------------------------------------------------------
; 150 | sys_busunlock();                                                       
;----------------------------------------------------------------------
	.dwcfi	cfa_offset, 0
	.dwcfi	save_reg_to_reg, 228, 19
           STW     .D2T2   B3,*SP--(16)      ; |150| 
	.dwcfi	cfa_offset, 16
	.dwcfi	save_reg_to_mem, 19, 0
$C$DW$227	.dwtag  DW_TAG_variable, DW_AT_name("addr")
	.dwattr $C$DW$227, DW_AT_TI_symbol_name("_addr")
	.dwattr $C$DW$227, DW_AT_type(*$C$DW$T$28)
	.dwattr $C$DW$227, DW_AT_location[DW_OP_breg31 4]
$C$DW$228	.dwtag  DW_TAG_variable, DW_AT_name("buf")
	.dwattr $C$DW$228, DW_AT_TI_symbol_name("_buf")
	.dwattr $C$DW$228, DW_AT_type(*$C$DW$T$3)
	.dwattr $C$DW$228, DW_AT_location[DW_OP_breg31 8]
$C$DW$229	.dwtag  DW_TAG_variable, DW_AT_name("len")
	.dwattr $C$DW$229, DW_AT_TI_symbol_name("_len")
	.dwattr $C$DW$229, DW_AT_type(*$C$DW$T$28)
	.dwattr $C$DW$229, DW_AT_location[DW_OP_breg31 12]
           STH     .D2T1   A6,*+SP(12)       ; |150| 

           MV      .L2X    A4,B5             ; |150| 
||         STW     .D2T2   B4,*+SP(8)        ; |150| 

           STH     .D2T2   B5,*+SP(4)        ; |150| 
	.dwpsn	file "test_c.cpp",line 151,column 5,is_stmt
;----------------------------------------------------------------------
; 152 | #endif                                                                 
; 153 | */                                                                     
;----------------------------------------------------------------------
           MVKL    .S1     _sh_mem_read_proc,A3

           MVKH    .S1     _sh_mem_read_proc,A3
||         LDHU    .D2T1   *+SP(12),A6       ; |151| 

$C$DW$230	.dwtag  DW_TAG_TI_branch
	.dwattr $C$DW$230, DW_AT_low_pc(0x08)
	.dwattr $C$DW$230, DW_AT_name("_QDMA_Read__FPvT1Us")
	.dwattr $C$DW$230, DW_AT_TI_call

           LDW     .D1T1   *A3,A3            ; |151| 
||         LDHU    .D2T2   *+SP(4),B4        ; |151| 
||         CALL    .S1     _QDMA_Read__FPvT1Us ; |151| 

           LDW     .D2T1   *+SP(8),A4        ; |151| 
           ADDKPC  .S2     $C$RL5,B3,2       ; |151| 
           ADD     .L2X    B4,A3,B4          ; |151| 
$C$RL5:    ; CALL OCCURS {_QDMA_Read__FPvT1Us} {0}  ; |151| 
	.dwpsn	file "test_c.cpp",line 154,column 1,is_stmt
;----------------------------------------------------------------------
; 154 | //---------------------------------------------------------------------
;     | -------                                                                
;----------------------------------------------------------------------
           LDW     .D2T2   *++SP(16),B3      ; |154| 
           NOP             4
	.dwcfi	cfa_offset, 0
	.dwcfi	restore_reg, 19
	.dwcfi	cfa_offset, 0
$C$DW$231	.dwtag  DW_TAG_TI_branch
	.dwattr $C$DW$231, DW_AT_low_pc(0x00)
	.dwattr $C$DW$231, DW_AT_TI_return
           RETNOP  .S2     B3,5              ; |154| 
           ; BRANCH OCCURS {B3}              ; |154| 
	.dwattr $C$DW$223, DW_AT_TI_end_file("test_c.cpp")
	.dwattr $C$DW$223, DW_AT_TI_end_line(0x9a)
	.dwattr $C$DW$223, DW_AT_TI_end_column(0x01)
	.dwendentry
	.dwendtag $C$DW$223

	.sect	".text"
	.clink
	.global	_ReadDARAM1__FUsPvT1

$C$DW$232	.dwtag  DW_TAG_subprogram, DW_AT_name("ReadDARAM1")
	.dwattr $C$DW$232, DW_AT_low_pc(_ReadDARAM1__FUsPvT1)
	.dwattr $C$DW$232, DW_AT_high_pc(0x00)
	.dwattr $C$DW$232, DW_AT_TI_symbol_name("_ReadDARAM1__FUsPvT1")
	.dwattr $C$DW$232, DW_AT_external
	.dwattr $C$DW$232, DW_AT_TI_begin_file("test_c.cpp")
	.dwattr $C$DW$232, DW_AT_TI_begin_line(0x9d)
	.dwattr $C$DW$232, DW_AT_TI_begin_column(0x06)
	.dwpsn	file "test_c.cpp",line 158,column 1,is_stmt,address _ReadDARAM1__FUsPvT1

	.dwfde $C$DW$CIE, _ReadDARAM1__FUsPvT1
$C$DW$233	.dwtag  DW_TAG_formal_parameter, DW_AT_name("addr")
	.dwattr $C$DW$233, DW_AT_TI_symbol_name("_addr")
	.dwattr $C$DW$233, DW_AT_type(*$C$DW$T$28)
	.dwattr $C$DW$233, DW_AT_location[DW_OP_reg4]
$C$DW$234	.dwtag  DW_TAG_formal_parameter, DW_AT_name("buf")
	.dwattr $C$DW$234, DW_AT_TI_symbol_name("_buf")
	.dwattr $C$DW$234, DW_AT_type(*$C$DW$T$3)
	.dwattr $C$DW$234, DW_AT_location[DW_OP_reg20]
$C$DW$235	.dwtag  DW_TAG_formal_parameter, DW_AT_name("len")
	.dwattr $C$DW$235, DW_AT_TI_symbol_name("_len")
	.dwattr $C$DW$235, DW_AT_type(*$C$DW$T$28)
	.dwattr $C$DW$235, DW_AT_location[DW_OP_reg6]
;----------------------------------------------------------------------
; 157 | QDMA_Read(buf,(char*)sh_mem_read_proc+addr, len);//mac+ip              
;----------------------------------------------------------------------

;******************************************************************************
;* FUNCTION NAME: ReadDARAM1(unsigned short, void *, unsigned short)          *
;*                                                                            *
;*   Regs Modified     : A0,A1,A2,A3,A4,A5,A6,A7,A8,A9,B0,B1,B2,B3,B4,B5,B6,  *
;*                           B7,B8,B9,SP,A16,A17,A18,A19,A20,A21,A22,A23,A24, *
;*                           A25,A26,A27,A28,A29,A30,A31,B16,B17,B18,B19,B20, *
;*                           B21,B22,B23,B24,B25,B26,B27,B28,B29,B30,B31      *
;*   Regs Used         : A0,A1,A2,A3,A4,A5,A6,A7,A8,A9,B0,B1,B2,B3,B4,B5,B6,  *
;*                           B7,B8,B9,SP,A16,A17,A18,A19,A20,A21,A22,A23,A24, *
;*                           A25,A26,A27,A28,A29,A30,A31,B16,B17,B18,B19,B20, *
;*                           B21,B22,B23,B24,B25,B26,B27,B28,B29,B30,B31      *
;*   Local Frame Size  : 0 Args + 12 Auto + 4 Save = 16 byte                  *
;******************************************************************************
_ReadDARAM1__FUsPvT1:
;** --------------------------------------------------------------------------*
;----------------------------------------------------------------------
; 158 | //      memcpy(buf,(char*)sh_mem_read_proc+addr, len);                 
;----------------------------------------------------------------------
	.dwcfi	cfa_offset, 0
	.dwcfi	save_reg_to_reg, 228, 19
           STW     .D2T2   B3,*SP--(16)      ; |158| 
	.dwcfi	cfa_offset, 16
	.dwcfi	save_reg_to_mem, 19, 0
$C$DW$236	.dwtag  DW_TAG_variable, DW_AT_name("addr")
	.dwattr $C$DW$236, DW_AT_TI_symbol_name("_addr")
	.dwattr $C$DW$236, DW_AT_type(*$C$DW$T$28)
	.dwattr $C$DW$236, DW_AT_location[DW_OP_breg31 4]
$C$DW$237	.dwtag  DW_TAG_variable, DW_AT_name("buf")
	.dwattr $C$DW$237, DW_AT_TI_symbol_name("_buf")
	.dwattr $C$DW$237, DW_AT_type(*$C$DW$T$3)
	.dwattr $C$DW$237, DW_AT_location[DW_OP_breg31 8]
$C$DW$238	.dwtag  DW_TAG_variable, DW_AT_name("len")
	.dwattr $C$DW$238, DW_AT_TI_symbol_name("_len")
	.dwattr $C$DW$238, DW_AT_type(*$C$DW$T$28)
	.dwattr $C$DW$238, DW_AT_location[DW_OP_breg31 12]
           STH     .D2T1   A6,*+SP(12)       ; |158| 

           MV      .L2X    A4,B5             ; |158| 
||         STW     .D2T2   B4,*+SP(8)        ; |158| 

           STH     .D2T2   B5,*+SP(4)        ; |158| 
	.dwpsn	file "test_c.cpp",line 159,column 5,is_stmt
           MVKL    .S1     _sh_mem_read_proc2,A3

           MVKH    .S1     _sh_mem_read_proc2,A3
||         LDHU    .D2T1   *+SP(12),A6       ; |159| 

$C$DW$239	.dwtag  DW_TAG_TI_branch
	.dwattr $C$DW$239, DW_AT_low_pc(0x08)
	.dwattr $C$DW$239, DW_AT_name("_QDMA_Read__FPvT1Us")
	.dwattr $C$DW$239, DW_AT_TI_call

           LDW     .D1T1   *A3,A3            ; |159| 
||         LDHU    .D2T2   *+SP(4),B4        ; |159| 
||         CALL    .S1     _QDMA_Read__FPvT1Us ; |159| 

           LDW     .D2T1   *+SP(8),A4        ; |159| 
           ADDKPC  .S2     $C$RL6,B3,2       ; |159| 
           ADD     .L2X    B4,A3,B4          ; |159| 
$C$RL6:    ; CALL OCCURS {_QDMA_Read__FPvT1Us} {0}  ; |159| 
	.dwpsn	file "test_c.cpp",line 161,column 1,is_stmt
           LDW     .D2T2   *++SP(16),B3      ; |161| 
           NOP             4
	.dwcfi	cfa_offset, 0
	.dwcfi	restore_reg, 19
	.dwcfi	cfa_offset, 0
$C$DW$240	.dwtag  DW_TAG_TI_branch
	.dwattr $C$DW$240, DW_AT_low_pc(0x00)
	.dwattr $C$DW$240, DW_AT_TI_return
           RETNOP  .S2     B3,5              ; |161| 
           ; BRANCH OCCURS {B3}              ; |161| 
	.dwattr $C$DW$232, DW_AT_TI_end_file("test_c.cpp")
	.dwattr $C$DW$232, DW_AT_TI_end_line(0xa1)
	.dwattr $C$DW$232, DW_AT_TI_end_column(0x01)
	.dwendentry
	.dwendtag $C$DW$232

	.sect	".text"
	.clink
	.global	_WriteDARAM__FUsPvT1

$C$DW$241	.dwtag  DW_TAG_subprogram, DW_AT_name("WriteDARAM")
	.dwattr $C$DW$241, DW_AT_low_pc(_WriteDARAM__FUsPvT1)
	.dwattr $C$DW$241, DW_AT_high_pc(0x00)
	.dwattr $C$DW$241, DW_AT_TI_symbol_name("_WriteDARAM__FUsPvT1")
	.dwattr $C$DW$241, DW_AT_external
	.dwattr $C$DW$241, DW_AT_TI_begin_file("test_c.cpp")
	.dwattr $C$DW$241, DW_AT_TI_begin_line(0xa8)
	.dwattr $C$DW$241, DW_AT_TI_begin_column(0x06)
	.dwpsn	file "test_c.cpp",line 169,column 1,is_stmt,address _WriteDARAM__FUsPvT1

	.dwfde $C$DW$CIE, _WriteDARAM__FUsPvT1
$C$DW$242	.dwtag  DW_TAG_formal_parameter, DW_AT_name("addr")
	.dwattr $C$DW$242, DW_AT_TI_symbol_name("_addr")
	.dwattr $C$DW$242, DW_AT_type(*$C$DW$T$28)
	.dwattr $C$DW$242, DW_AT_location[DW_OP_reg4]
$C$DW$243	.dwtag  DW_TAG_formal_parameter, DW_AT_name("buf")
	.dwattr $C$DW$243, DW_AT_TI_symbol_name("_buf")
	.dwattr $C$DW$243, DW_AT_type(*$C$DW$T$3)
	.dwattr $C$DW$243, DW_AT_location[DW_OP_reg20]
$C$DW$244	.dwtag  DW_TAG_formal_parameter, DW_AT_name("len")
	.dwattr $C$DW$244, DW_AT_TI_symbol_name("_len")
	.dwattr $C$DW$244, DW_AT_type(*$C$DW$T$28)
	.dwattr $C$DW$244, DW_AT_location[DW_OP_reg6]

;******************************************************************************
;* FUNCTION NAME: WriteDARAM(unsigned short, void *, unsigned short)          *
;*                                                                            *
;*   Regs Modified     : A3,B0,B4,B5,B6,SP,B31                                *
;*   Regs Used         : A3,A4,A6,B0,B3,B4,B5,B6,SP,B31                       *
;*   Local Frame Size  : 0 Args + 20 Auto + 0 Save = 20 byte                  *
;******************************************************************************
_WriteDARAM__FUsPvT1:
;** --------------------------------------------------------------------------*
	.dwcfi	cfa_offset, 0
	.dwcfi	save_reg_to_reg, 228, 19
           SUB     .D2     SP,24,SP          ; |169| 
	.dwcfi	cfa_offset, 24
$C$DW$245	.dwtag  DW_TAG_variable, DW_AT_name("addr")
	.dwattr $C$DW$245, DW_AT_TI_symbol_name("_addr")
	.dwattr $C$DW$245, DW_AT_type(*$C$DW$T$28)
	.dwattr $C$DW$245, DW_AT_location[DW_OP_breg31 4]
$C$DW$246	.dwtag  DW_TAG_variable, DW_AT_name("buf")
	.dwattr $C$DW$246, DW_AT_TI_symbol_name("_buf")
	.dwattr $C$DW$246, DW_AT_type(*$C$DW$T$3)
	.dwattr $C$DW$246, DW_AT_location[DW_OP_breg31 8]
$C$DW$247	.dwtag  DW_TAG_variable, DW_AT_name("len")
	.dwattr $C$DW$247, DW_AT_TI_symbol_name("_len")
	.dwattr $C$DW$247, DW_AT_type(*$C$DW$T$28)
	.dwattr $C$DW$247, DW_AT_location[DW_OP_breg31 12]
$C$DW$248	.dwtag  DW_TAG_variable, DW_AT_name("l")
	.dwattr $C$DW$248, DW_AT_TI_symbol_name("_l")
	.dwattr $C$DW$248, DW_AT_type(*$C$DW$T$28)
	.dwattr $C$DW$248, DW_AT_location[DW_OP_breg31 14]
$C$DW$249	.dwtag  DW_TAG_variable, DW_AT_name("s")
	.dwattr $C$DW$249, DW_AT_TI_symbol_name("_s")
	.dwattr $C$DW$249, DW_AT_type(*$C$DW$T$732)
	.dwattr $C$DW$249, DW_AT_location[DW_OP_breg31 16]
$C$DW$250	.dwtag  DW_TAG_variable, DW_AT_name("d")
	.dwattr $C$DW$250, DW_AT_TI_symbol_name("_d")
	.dwattr $C$DW$250, DW_AT_type(*$C$DW$T$732)
	.dwattr $C$DW$250, DW_AT_location[DW_OP_breg31 20]
           STH     .D2T1   A6,*+SP(12)       ; |169| 
           STW     .D2T2   B4,*+SP(8)        ; |169| 
           STH     .D2T1   A4,*+SP(4)        ; |169| 
	.dwpsn	file "test_c.cpp",line 170,column 8,is_stmt
;----------------------------------------------------------------------
; 170 | //#ifdef TPO5                                                          
;----------------------------------------------------------------------
           LDHU    .D2T2   *+SP(12),B4       ; |170| 
           NOP             4
           ADD     .L2     3,B4,B4           ; |170| 
           SHR     .S2     B4,2,B4           ; |170| 
           STH     .D2T2   B4,*+SP(14)       ; |170| 
	.dwpsn	file "test_c.cpp",line 171,column 9,is_stmt
;----------------------------------------------------------------------
; 171 | #ifdef CHIP_6412                                                       
;----------------------------------------------------------------------
           LDW     .D2T2   *+SP(8),B4        ; |171| 
           NOP             4
           STW     .D2T2   B4,*+SP(16)       ; |171| 
	.dwpsn	file "test_c.cpp",line 172,column 9,is_stmt
           MVKL    .S1     _sh_mem_write,A3
           MVKH    .S1     _sh_mem_write,A3

           LDW     .D1T1   *A3,A3            ; |172| 
||         LDHU    .D2T2   *+SP(4),B4        ; |172| 

           NOP             4
           ADD     .L2X    B4,A3,B4          ; |172| 
           STW     .D2T2   B4,*+SP(20)       ; |172| 
	.dwpsn	file "test_c.cpp",line 173,column 2,is_stmt
;----------------------------------------------------------------------
; 173 | //---------------------------------------------------------------------
;     | -------                                                                
;----------------------------------------------------------------------
           LDHU    .D2T2   *+SP(14),B0       ; |173| 
           NOP             4
   [!B0]   BNOP    .S1     $C$L5,3           ; |173| 
           SUB     .L2     B0,1,B4           ; |173| 
           STH     .D2T2   B4,*+SP(14)       ; |173| 
           ; BRANCHCC OCCURS {$C$L5}         ; |173| 
;*----------------------------------------------------------------------------*
;*   SOFTWARE PIPELINE INFORMATION
;*      Disqualified loop: Software pipelining disabled
;*----------------------------------------------------------------------------*
$C$L4:    
$C$DW$L$_WriteDARAM__FUsPvT1$2$B:
	.dwpsn	file "test_c.cpp",line 174,column 3,is_stmt
;----------------------------------------------------------------------
; 174 | void WriteDARAM(uint16 addr,void* buf,uint16 len)                      
;----------------------------------------------------------------------
           LDW     .D2T2   *+SP(16),B4       ; |174| 
           LDW     .D2T2   *+SP(20),B5       ; |174| 
           NOP             3
           ADD     .L2     4,B4,B6           ; |174| 
           STW     .D2T2   B6,*+SP(16)       ; |174| 
           LDNW    .D2T2   *B4,B4            ; |174| 
           ADD     .L2     4,B5,B31          ; |174| 
           STW     .D2T2   B31,*+SP(20)      ; |174| 
           NOP             2
           STW     .D2T2   B4,*B5            ; |174| 
           LDHU    .D2T2   *+SP(14),B0       ; |174| 
           NOP             4
   [ B0]   BNOP    .S1     $C$L4,3           ; |174| 
           SUB     .L2     B0,1,B4           ; |174| 
           STH     .D2T2   B4,*+SP(14)       ; |174| 
           ; BRANCHCC OCCURS {$C$L4}         ; |174| 
$C$DW$L$_WriteDARAM__FUsPvT1$2$E:
;** --------------------------------------------------------------------------*
	.dwpsn	file "test_c.cpp",line 175,column 1,is_stmt
;** --------------------------------------------------------------------------*
$C$L5:    
           ADDK    .S2     24,SP             ; |175| 
	.dwcfi	cfa_offset, 0
	.dwcfi	cfa_offset, 0
$C$DW$251	.dwtag  DW_TAG_TI_branch
	.dwattr $C$DW$251, DW_AT_low_pc(0x00)
	.dwattr $C$DW$251, DW_AT_TI_return
           RETNOP  .S2     B3,5              ; |175| 
           ; BRANCH OCCURS {B3}              ; |175| 

$C$DW$252	.dwtag  DW_TAG_TI_loop
	.dwattr $C$DW$252, DW_AT_name("C:\1901VC1T_Inteltech\3rdPartyLIB\dsp_core\C6000\tpo_amoeba\source\test_c.asm:$C$L4:1:1517815039")
	.dwattr $C$DW$252, DW_AT_TI_begin_file("test_c.cpp")
	.dwattr $C$DW$252, DW_AT_TI_begin_line(0xad)
	.dwattr $C$DW$252, DW_AT_TI_end_line(0xae)
$C$DW$253	.dwtag  DW_TAG_TI_loop_range
	.dwattr $C$DW$253, DW_AT_low_pc($C$DW$L$_WriteDARAM__FUsPvT1$2$B)
	.dwattr $C$DW$253, DW_AT_high_pc($C$DW$L$_WriteDARAM__FUsPvT1$2$E)
	.dwendtag $C$DW$252

	.dwattr $C$DW$241, DW_AT_TI_end_file("test_c.cpp")
	.dwattr $C$DW$241, DW_AT_TI_end_line(0xaf)
	.dwattr $C$DW$241, DW_AT_TI_end_column(0x01)
	.dwendentry
	.dwendtag $C$DW$241

	.sect	".text"
	.clink
	.global	_ReadDARAM_CRYPT0__FUsPvT1

$C$DW$254	.dwtag  DW_TAG_subprogram, DW_AT_name("ReadDARAM_CRYPT0")
	.dwattr $C$DW$254, DW_AT_low_pc(_ReadDARAM_CRYPT0__FUsPvT1)
	.dwattr $C$DW$254, DW_AT_high_pc(0x00)
	.dwattr $C$DW$254, DW_AT_TI_symbol_name("_ReadDARAM_CRYPT0__FUsPvT1")
	.dwattr $C$DW$254, DW_AT_external
	.dwattr $C$DW$254, DW_AT_TI_begin_file("test_c.cpp")
	.dwattr $C$DW$254, DW_AT_TI_begin_line(0xbd)
	.dwattr $C$DW$254, DW_AT_TI_begin_column(0x06)
	.dwpsn	file "test_c.cpp",line 190,column 1,is_stmt,address _ReadDARAM_CRYPT0__FUsPvT1

	.dwfde $C$DW$CIE, _ReadDARAM_CRYPT0__FUsPvT1
$C$DW$255	.dwtag  DW_TAG_formal_parameter, DW_AT_name("addr")
	.dwattr $C$DW$255, DW_AT_TI_symbol_name("_addr")
	.dwattr $C$DW$255, DW_AT_type(*$C$DW$T$28)
	.dwattr $C$DW$255, DW_AT_location[DW_OP_reg4]
$C$DW$256	.dwtag  DW_TAG_formal_parameter, DW_AT_name("buf")
	.dwattr $C$DW$256, DW_AT_TI_symbol_name("_buf")
	.dwattr $C$DW$256, DW_AT_type(*$C$DW$T$3)
	.dwattr $C$DW$256, DW_AT_location[DW_OP_reg20]
$C$DW$257	.dwtag  DW_TAG_formal_parameter, DW_AT_name("len")
	.dwattr $C$DW$257, DW_AT_TI_symbol_name("_len")
	.dwattr $C$DW$257, DW_AT_type(*$C$DW$T$28)
	.dwattr $C$DW$257, DW_AT_location[DW_OP_reg6]
;----------------------------------------------------------------------
; 189 | while(l--)                                                             
;----------------------------------------------------------------------

;******************************************************************************
;* FUNCTION NAME: ReadDARAM_CRYPT0(unsigned short, void *, unsigned short)    *
;*                                                                            *
;*   Regs Modified     : A0,A1,A2,A3,A4,A5,A6,A7,A8,A9,B0,B1,B2,B3,B4,B5,B6,  *
;*                           B7,B8,B9,SP,A16,A17,A18,A19,A20,A21,A22,A23,A24, *
;*                           A25,A26,A27,A28,A29,A30,A31,B16,B17,B18,B19,B20, *
;*                           B21,B22,B23,B24,B25,B26,B27,B28,B29,B30,B31      *
;*   Regs Used         : A0,A1,A2,A3,A4,A5,A6,A7,A8,A9,B0,B1,B2,B3,B4,B5,B6,  *
;*                           B7,B8,B9,SP,A16,A17,A18,A19,A20,A21,A22,A23,A24, *
;*                           A25,A26,A27,A28,A29,A30,A31,B16,B17,B18,B19,B20, *
;*                           B21,B22,B23,B24,B25,B26,B27,B28,B29,B30,B31      *
;*   Local Frame Size  : 0 Args + 12 Auto + 4 Save = 16 byte                  *
;******************************************************************************
_ReadDARAM_CRYPT0__FUsPvT1:
;** --------------------------------------------------------------------------*
;----------------------------------------------------------------------
; 190 | _amem8(d++)=_mem8(s++);                                                
;----------------------------------------------------------------------
	.dwcfi	cfa_offset, 0
	.dwcfi	save_reg_to_reg, 228, 19
           STW     .D2T2   B3,*SP--(16)      ; |190| 
	.dwcfi	cfa_offset, 16
	.dwcfi	save_reg_to_mem, 19, 0
$C$DW$258	.dwtag  DW_TAG_variable, DW_AT_name("addr")
	.dwattr $C$DW$258, DW_AT_TI_symbol_name("_addr")
	.dwattr $C$DW$258, DW_AT_type(*$C$DW$T$28)
	.dwattr $C$DW$258, DW_AT_location[DW_OP_breg31 4]
$C$DW$259	.dwtag  DW_TAG_variable, DW_AT_name("buf")
	.dwattr $C$DW$259, DW_AT_TI_symbol_name("_buf")
	.dwattr $C$DW$259, DW_AT_type(*$C$DW$T$3)
	.dwattr $C$DW$259, DW_AT_location[DW_OP_breg31 8]
$C$DW$260	.dwtag  DW_TAG_variable, DW_AT_name("len")
	.dwattr $C$DW$260, DW_AT_TI_symbol_name("_len")
	.dwattr $C$DW$260, DW_AT_type(*$C$DW$T$28)
	.dwattr $C$DW$260, DW_AT_location[DW_OP_breg31 12]
           STH     .D2T1   A6,*+SP(12)       ; |190| 

           MV      .L2X    A4,B5             ; |190| 
||         STW     .D2T2   B4,*+SP(8)        ; |190| 

           STH     .D2T2   B5,*+SP(4)        ; |190| 
	.dwpsn	file "test_c.cpp",line 192,column 5,is_stmt
;----------------------------------------------------------------------
; 192 | #endif                                                                 
;----------------------------------------------------------------------
           MVKL    .S1     _sh_mem_read_crypt,A3

           MVKH    .S1     _sh_mem_read_crypt,A3
||         LDHU    .D2T1   *+SP(12),A6       ; |192| 

$C$DW$261	.dwtag  DW_TAG_TI_branch
	.dwattr $C$DW$261, DW_AT_low_pc(0x08)
	.dwattr $C$DW$261, DW_AT_name("_QDMA_Read__FPvT1Us")
	.dwattr $C$DW$261, DW_AT_TI_call

           LDW     .D1T1   *A3,A3            ; |192| 
||         LDHU    .D2T2   *+SP(4),B4        ; |192| 
||         CALL    .S1     _QDMA_Read__FPvT1Us ; |192| 

           LDW     .D2T1   *+SP(8),A4        ; |192| 
           ADDKPC  .S2     $C$RL7,B3,2       ; |192| 
           ADD     .L2X    B4,A3,B4          ; |192| 
$C$RL7:    ; CALL OCCURS {_QDMA_Read__FPvT1Us} {0}  ; |192| 
	.dwpsn	file "test_c.cpp",line 194,column 1,is_stmt
;----------------------------------------------------------------------
; 194 | //---------------------------------------------------------------------
;     | -------                                                                
;----------------------------------------------------------------------
           LDW     .D2T2   *++SP(16),B3      ; |194| 
           NOP             4
	.dwcfi	cfa_offset, 0
	.dwcfi	restore_reg, 19
	.dwcfi	cfa_offset, 0
$C$DW$262	.dwtag  DW_TAG_TI_branch
	.dwattr $C$DW$262, DW_AT_low_pc(0x00)
	.dwattr $C$DW$262, DW_AT_TI_return
           RETNOP  .S2     B3,5              ; |194| 
           ; BRANCH OCCURS {B3}              ; |194| 
	.dwattr $C$DW$254, DW_AT_TI_end_file("test_c.cpp")
	.dwattr $C$DW$254, DW_AT_TI_end_line(0xc2)
	.dwattr $C$DW$254, DW_AT_TI_end_column(0x01)
	.dwendentry
	.dwendtag $C$DW$254

	.sect	".text"
	.clink
	.global	_ReadDARAM_CRYPT1__FUsPvT1

$C$DW$263	.dwtag  DW_TAG_subprogram, DW_AT_name("ReadDARAM_CRYPT1")
	.dwattr $C$DW$263, DW_AT_low_pc(_ReadDARAM_CRYPT1__FUsPvT1)
	.dwattr $C$DW$263, DW_AT_high_pc(0x00)
	.dwattr $C$DW$263, DW_AT_TI_symbol_name("_ReadDARAM_CRYPT1__FUsPvT1")
	.dwattr $C$DW$263, DW_AT_external
	.dwattr $C$DW$263, DW_AT_TI_begin_file("test_c.cpp")
	.dwattr $C$DW$263, DW_AT_TI_begin_line(0xc5)
	.dwattr $C$DW$263, DW_AT_TI_begin_column(0x06)
	.dwpsn	file "test_c.cpp",line 198,column 1,is_stmt,address _ReadDARAM_CRYPT1__FUsPvT1

	.dwfde $C$DW$CIE, _ReadDARAM_CRYPT1__FUsPvT1
$C$DW$264	.dwtag  DW_TAG_formal_parameter, DW_AT_name("addr")
	.dwattr $C$DW$264, DW_AT_TI_symbol_name("_addr")
	.dwattr $C$DW$264, DW_AT_type(*$C$DW$T$28)
	.dwattr $C$DW$264, DW_AT_location[DW_OP_reg4]
$C$DW$265	.dwtag  DW_TAG_formal_parameter, DW_AT_name("buf")
	.dwattr $C$DW$265, DW_AT_TI_symbol_name("_buf")
	.dwattr $C$DW$265, DW_AT_type(*$C$DW$T$3)
	.dwattr $C$DW$265, DW_AT_location[DW_OP_reg20]
$C$DW$266	.dwtag  DW_TAG_formal_parameter, DW_AT_name("len")
	.dwattr $C$DW$266, DW_AT_TI_symbol_name("_len")
	.dwattr $C$DW$266, DW_AT_type(*$C$DW$T$28)
	.dwattr $C$DW$266, DW_AT_location[DW_OP_reg6]
;----------------------------------------------------------------------
; 197 | //      QDMA_Read(2, buf,  (char*)sh_mem_read_crypt+addr, len );       
;----------------------------------------------------------------------

;******************************************************************************
;* FUNCTION NAME: ReadDARAM_CRYPT1(unsigned short, void *, unsigned short)    *
;*                                                                            *
;*   Regs Modified     : A0,A1,A2,A3,A4,A5,A6,A7,A8,A9,B0,B1,B2,B3,B4,B5,B6,  *
;*                           B7,B8,B9,SP,A16,A17,A18,A19,A20,A21,A22,A23,A24, *
;*                           A25,A26,A27,A28,A29,A30,A31,B16,B17,B18,B19,B20, *
;*                           B21,B22,B23,B24,B25,B26,B27,B28,B29,B30,B31      *
;*   Regs Used         : A0,A1,A2,A3,A4,A5,A6,A7,A8,A9,B0,B1,B2,B3,B4,B5,B6,  *
;*                           B7,B8,B9,SP,A16,A17,A18,A19,A20,A21,A22,A23,A24, *
;*                           A25,A26,A27,A28,A29,A30,A31,B16,B17,B18,B19,B20, *
;*                           B21,B22,B23,B24,B25,B26,B27,B28,B29,B30,B31      *
;*   Local Frame Size  : 0 Args + 12 Auto + 4 Save = 16 byte                  *
;******************************************************************************
_ReadDARAM_CRYPT1__FUsPvT1:
;** --------------------------------------------------------------------------*
;----------------------------------------------------------------------
; 198 | QDMA_Read(buf,(char*)sh_mem_read_crypt+addr, len);//mac+ip             
;----------------------------------------------------------------------
	.dwcfi	cfa_offset, 0
	.dwcfi	save_reg_to_reg, 228, 19
           STW     .D2T2   B3,*SP--(16)      ; |198| 
	.dwcfi	cfa_offset, 16
	.dwcfi	save_reg_to_mem, 19, 0
$C$DW$267	.dwtag  DW_TAG_variable, DW_AT_name("addr")
	.dwattr $C$DW$267, DW_AT_TI_symbol_name("_addr")
	.dwattr $C$DW$267, DW_AT_type(*$C$DW$T$28)
	.dwattr $C$DW$267, DW_AT_location[DW_OP_breg31 4]
$C$DW$268	.dwtag  DW_TAG_variable, DW_AT_name("buf")
	.dwattr $C$DW$268, DW_AT_TI_symbol_name("_buf")
	.dwattr $C$DW$268, DW_AT_type(*$C$DW$T$3)
	.dwattr $C$DW$268, DW_AT_location[DW_OP_breg31 8]
$C$DW$269	.dwtag  DW_TAG_variable, DW_AT_name("len")
	.dwattr $C$DW$269, DW_AT_TI_symbol_name("_len")
	.dwattr $C$DW$269, DW_AT_type(*$C$DW$T$28)
	.dwattr $C$DW$269, DW_AT_location[DW_OP_breg31 12]
;----------------------------------------------------------------------
; 199 | //      memcpy(buf,(char*)sh_mem_read_crypt+addr, len);                
;----------------------------------------------------------------------
           STH     .D2T1   A6,*+SP(12)       ; |198| 

           MV      .L2X    A4,B5             ; |198| 
||         STW     .D2T2   B4,*+SP(8)        ; |198| 

           STH     .D2T2   B5,*+SP(4)        ; |198| 
	.dwpsn	file "test_c.cpp",line 200,column 5,is_stmt
           MVKL    .S1     _sh_mem_read_crypt2,A3

           MVKH    .S1     _sh_mem_read_crypt2,A3
||         LDHU    .D2T1   *+SP(12),A6       ; |200| 

$C$DW$270	.dwtag  DW_TAG_TI_branch
	.dwattr $C$DW$270, DW_AT_low_pc(0x08)
	.dwattr $C$DW$270, DW_AT_name("_QDMA_Read__FPvT1Us")
	.dwattr $C$DW$270, DW_AT_TI_call

           LDW     .D1T1   *A3,A3            ; |200| 
||         LDHU    .D2T2   *+SP(4),B4        ; |200| 
||         CALL    .S1     _QDMA_Read__FPvT1Us ; |200| 

           LDW     .D2T1   *+SP(8),A4        ; |200| 
           ADDKPC  .S2     $C$RL8,B3,2       ; |200| 
           ADD     .L2X    B4,A3,B4          ; |200| 
$C$RL8:    ; CALL OCCURS {_QDMA_Read__FPvT1Us} {0}  ; |200| 
	.dwpsn	file "test_c.cpp",line 202,column 1,is_stmt
;----------------------------------------------------------------------
; 202 | //---------------------------------------------------------------------
;     | -------                                                                
;----------------------------------------------------------------------
           LDW     .D2T2   *++SP(16),B3      ; |202| 
           NOP             4
	.dwcfi	cfa_offset, 0
	.dwcfi	restore_reg, 19
	.dwcfi	cfa_offset, 0
$C$DW$271	.dwtag  DW_TAG_TI_branch
	.dwattr $C$DW$271, DW_AT_low_pc(0x00)
	.dwattr $C$DW$271, DW_AT_TI_return
           RETNOP  .S2     B3,5              ; |202| 
           ; BRANCH OCCURS {B3}              ; |202| 
	.dwattr $C$DW$263, DW_AT_TI_end_file("test_c.cpp")
	.dwattr $C$DW$263, DW_AT_TI_end_line(0xca)
	.dwattr $C$DW$263, DW_AT_TI_end_column(0x01)
	.dwendentry
	.dwendtag $C$DW$263

	.sect	".text"
	.clink
	.global	_TestCelostnost__Fv

$C$DW$272	.dwtag  DW_TAG_subprogram, DW_AT_name("TestCelostnost")
	.dwattr $C$DW$272, DW_AT_low_pc(_TestCelostnost__Fv)
	.dwattr $C$DW$272, DW_AT_high_pc(0x00)
	.dwattr $C$DW$272, DW_AT_TI_symbol_name("_TestCelostnost__Fv")
	.dwattr $C$DW$272, DW_AT_external
	.dwattr $C$DW$272, DW_AT_type(*$C$DW$T$47)
	.dwattr $C$DW$272, DW_AT_TI_begin_file("test_c.cpp")
	.dwattr $C$DW$272, DW_AT_TI_begin_line(0xcf)
	.dwattr $C$DW$272, DW_AT_TI_begin_column(0x08)
	.dwpsn	file "test_c.cpp",line 208,column 1,is_stmt,address _TestCelostnost__Fv

	.dwfde $C$DW$CIE, _TestCelostnost__Fv
;----------------------------------------------------------------------
; 207 | //      memcpy(buf,(char*)sh_mem_read_crypt2+addr, len);               
;----------------------------------------------------------------------

;******************************************************************************
;* FUNCTION NAME: TestCelostnost()                                            *
;*                                                                            *
;*   Regs Modified     : A0,A1,A2,A3,A4,A5,A6,A7,A8,A9,B0,B1,B2,B3,B4,B5,B6,  *
;*                           B7,B8,B9,SP,A16,A17,A18,A19,A20,A21,A22,A23,A24, *
;*                           A25,A26,A27,A28,A29,A30,A31,B16,B17,B18,B19,B20, *
;*                           B21,B22,B23,B24,B25,B26,B27,B28,B29,B30,B31      *
;*   Regs Used         : A0,A1,A2,A3,A4,A5,A6,A7,A8,A9,B0,B1,B2,B3,B4,B5,B6,  *
;*                           B7,B8,B9,SP,A16,A17,A18,A19,A20,A21,A22,A23,A24, *
;*                           A25,A26,A27,A28,A29,A30,A31,B16,B17,B18,B19,B20, *
;*                           B21,B22,B23,B24,B25,B26,B27,B28,B29,B30,B31      *
;*   Local Frame Size  : 0 Args + 4 Auto + 4 Save = 8 byte                    *
;******************************************************************************
_TestCelostnost__Fv:
;** --------------------------------------------------------------------------*
	.dwcfi	cfa_offset, 0
	.dwcfi	save_reg_to_reg, 228, 19
           STW     .D2T2   B3,*SP--(8)       ; |208| 
	.dwcfi	cfa_offset, 8
	.dwcfi	save_reg_to_mem, 19, 0
$C$DW$273	.dwtag  DW_TAG_variable, DW_AT_name("res")
	.dwattr $C$DW$273, DW_AT_TI_symbol_name("_res")
	.dwattr $C$DW$273, DW_AT_type(*$C$DW$T$47)
	.dwattr $C$DW$273, DW_AT_location[DW_OP_breg31 4]
	.dwpsn	file "test_c.cpp",line 209,column 8,is_stmt
           ZERO    .L2     B4                ; |209| 
           STW     .D2T2   B4,*+SP(4)        ; |209| 
	.dwpsn	file "test_c.cpp",line 211,column 1,is_stmt
;----------------------------------------------------------------------
; 212 | //---------------------------------------------------------------------
;     | -------                                                                
;----------------------------------------------------------------------
$C$DW$274	.dwtag  DW_TAG_TI_branch
	.dwattr $C$DW$274, DW_AT_low_pc(0x00)
	.dwattr $C$DW$274, DW_AT_name("_analysis_hash_fwmem__FP11hash_window")
	.dwattr $C$DW$274, DW_AT_TI_call
           CALL    .S1     _analysis_hash_fwmem__FP11hash_window ; |211| 
           MVKL    .S1     _hwindow,A4
           ADDKPC  .S2     $C$RL9,B3,2       ; |211| 
           MVKH    .S1     _hwindow,A4
$C$RL9:    ; CALL OCCURS {_analysis_hash_fwmem__FP11hash_window} {0}  ; |211| 
           STW     .D2T1   A4,*+SP(4)        ; |211| 
	.dwpsn	file "test_c.cpp",line 213,column 1,is_stmt
;----------------------------------------------------------------------
; 213 | uint32 TestCelostnost()                                                
;----------------------------------------------------------------------
           MV      .L2X    A4,B0
   [!B0]   BNOP    .S1     $C$L6,4           ; |213| 
           ZERO    .L1     A4                ; |213| 
           ; BRANCHCC OCCURS {$C$L6}         ; |213| 
;** --------------------------------------------------------------------------*
           MVK     .L1     0x1,A4            ; |213| 
;** --------------------------------------------------------------------------*
$C$L6:    
	.dwpsn	file "test_c.cpp",line 214,column 1,is_stmt
           LDW     .D2T2   *++SP(8),B3       ; |214| 
           NOP             4
	.dwcfi	cfa_offset, 0
	.dwcfi	restore_reg, 19
	.dwcfi	cfa_offset, 0
$C$DW$275	.dwtag  DW_TAG_TI_branch
	.dwattr $C$DW$275, DW_AT_low_pc(0x00)
	.dwattr $C$DW$275, DW_AT_TI_return
           RETNOP  .S2     B3,5              ; |214| 
           ; BRANCH OCCURS {B3}              ; |214| 
	.dwattr $C$DW$272, DW_AT_TI_end_file("test_c.cpp")
	.dwattr $C$DW$272, DW_AT_TI_end_line(0xd6)
	.dwattr $C$DW$272, DW_AT_TI_end_column(0x01)
	.dwendentry
	.dwendtag $C$DW$272

	.sect	".text"
	.clink
	.global	_TestDozu__FP12kdg_rez_test

$C$DW$276	.dwtag  DW_TAG_subprogram, DW_AT_name("TestDozu")
	.dwattr $C$DW$276, DW_AT_low_pc(_TestDozu__FP12kdg_rez_test)
	.dwattr $C$DW$276, DW_AT_high_pc(0x00)
	.dwattr $C$DW$276, DW_AT_TI_symbol_name("_TestDozu__FP12kdg_rez_test")
	.dwattr $C$DW$276, DW_AT_external
	.dwattr $C$DW$276, DW_AT_type(*$C$DW$T$47)
	.dwattr $C$DW$276, DW_AT_TI_begin_file("test_c.cpp")
	.dwattr $C$DW$276, DW_AT_TI_begin_line(0xd9)
	.dwattr $C$DW$276, DW_AT_TI_begin_column(0x08)
	.dwpsn	file "test_c.cpp",line 218,column 1,is_stmt,address _TestDozu__FP12kdg_rez_test

	.dwfde $C$DW$CIE, _TestDozu__FP12kdg_rez_test
$C$DW$277	.dwtag  DW_TAG_formal_parameter, DW_AT_name("result")
	.dwattr $C$DW$277, DW_AT_TI_symbol_name("_result")
	.dwattr $C$DW$277, DW_AT_type(*$C$DW$T$696)
	.dwattr $C$DW$277, DW_AT_location[DW_OP_reg4]
;----------------------------------------------------------------------
; 217 | res = analysis_hash_fwmem(hwindow);                                    
;----------------------------------------------------------------------

;******************************************************************************
;* FUNCTION NAME: TestDozu(kdg_rez_test *)                                    *
;*                                                                            *
;*   Regs Modified     : A0,A1,A2,A3,A4,A5,A6,A7,A8,A9,B0,B1,B2,B3,B4,B5,B6,  *
;*                           B7,B8,B9,SP,A16,A17,A18,A19,A20,A21,A22,A23,A24, *
;*                           A25,A26,A27,A28,A29,A30,A31,B16,B17,B18,B19,B20, *
;*                           B21,B22,B23,B24,B25,B26,B27,B28,B29,B30,B31      *
;*   Regs Used         : A0,A1,A2,A3,A4,A5,A6,A7,A8,A9,B0,B1,B2,B3,B4,B5,B6,  *
;*                           B7,B8,B9,SP,A16,A17,A18,A19,A20,A21,A22,A23,A24, *
;*                           A25,A26,A27,A28,A29,A30,A31,B16,B17,B18,B19,B20, *
;*                           B21,B22,B23,B24,B25,B26,B27,B28,B29,B30,B31      *
;*   Local Frame Size  : 0 Args + 3604 Auto + 4 Save = 3608 byte              *
;******************************************************************************
_TestDozu__FP12kdg_rez_test:
;** --------------------------------------------------------------------------*
	.dwcfi	cfa_offset, 0
	.dwcfi	save_reg_to_reg, 228, 19
           ADDK    .S2     -3608,SP          ; |218| 
	.dwcfi	cfa_offset, 3608
           STW     .D2T2   B3,*+SP(3608)     ; |218| 
	.dwcfi	save_reg_to_mem, 19, 0
$C$DW$278	.dwtag  DW_TAG_variable, DW_AT_name("result")
	.dwattr $C$DW$278, DW_AT_TI_symbol_name("_result")
	.dwattr $C$DW$278, DW_AT_type(*$C$DW$T$696)
	.dwattr $C$DW$278, DW_AT_location[DW_OP_breg31 4]
$C$DW$279	.dwtag  DW_TAG_variable, DW_AT_name("sh_d")
	.dwattr $C$DW$279, DW_AT_TI_symbol_name("_sh_d")
	.dwattr $C$DW$279, DW_AT_type(*$C$DW$T$47)
	.dwattr $C$DW$279, DW_AT_location[DW_OP_breg31 8]
$C$DW$280	.dwtag  DW_TAG_variable, DW_AT_name("start_adr")
	.dwattr $C$DW$280, DW_AT_TI_symbol_name("_start_adr")
	.dwattr $C$DW$280, DW_AT_type(*$C$DW$T$47)
	.dwattr $C$DW$280, DW_AT_location[DW_OP_breg31 12]
$C$DW$281	.dwtag  DW_TAG_variable, DW_AT_name("buf")
	.dwattr $C$DW$281, DW_AT_TI_symbol_name("_buf")
	.dwattr $C$DW$281, DW_AT_type(*$C$DW$T$740)
	.dwattr $C$DW$281, DW_AT_location[DW_OP_breg31 16]
$C$DW$282	.dwtag  DW_TAG_variable, DW_AT_name("one")
	.dwattr $C$DW$282, DW_AT_TI_symbol_name("_one")
	.dwattr $C$DW$282, DW_AT_type(*$C$DW$T$47)
	.dwattr $C$DW$282, DW_AT_location[DW_OP_breg31 3600]
;----------------------------------------------------------------------
; 219 | return res == 0 ? 0 : 1;                                               
;----------------------------------------------------------------------
           STW     .D2T1   A4,*+SP(4)        ; |218| 
	.dwpsn	file "test_c.cpp",line 221,column 8,is_stmt
;----------------------------------------------------------------------
; 222 | //---------------------------------------------------------------------
;     | -------                                                                
; 223 | uint32 TestDozu(kdg_rez_test* result)                                  
;----------------------------------------------------------------------
           MVK     .L2     4,B4              ; |221| 
           STW     .D2T2   B4,*+SP(8)        ; |221| 
	.dwpsn	file "test_c.cpp",line 225,column 8,is_stmt
;----------------------------------------------------------------------
; 225 | //uint32 res = 0;                                                      
; 226 | //int error = 0;                                                       
; 227 | uint32 sh_d = SH_DOZU/8;                                               
; 228 | #ifdef TPO_M711B                                                       
; 229 | uint32 start_adr = 0x100;                                              
; 230 | #else                                                                  
; 231 | uint32 start_adr = 0;                                                  
; 232 | #endif                                                                 
;----------------------------------------------------------------------
           ZERO    .L1     A3                ; |225| 
           STW     .D2T1   A3,*+SP(12)       ; |225| 
	.dwpsn	file "test_c.cpp",line 234,column 8,is_stmt
;----------------------------------------------------------------------
; 236 | #ifdef TPO5                                                            
; 237 | uint32 buf[LEN_BUF_FOR_TEST_DOZU];                                     
; 238 | #define DAT555  0x55555555                                             
; 239 | #define DATAAA  0xAAAAAAAA                                             
; 240 | uint32 one = 1;                                                        
; 241 | #else                                                                  
; 242 | uint64 buf[LEN_BUF_FOR_TEST_DOZU];                                     
; 243 | #define DAT555  0x5555555555555555                                     
;----------------------------------------------------------------------
           MVK     .L1     1,A3              ; |234| 
           STW     .D2T1   A3,*+SP(3600)     ; |234| 
	.dwpsn	file "test_c.cpp",line 244,column 1,is_stmt
;----------------------------------------------------------------------
; 244 | #define DATAAA  0xAAAAAAAAAAAAAAAA                                     
; 245 | uint64 one = 1;                                                        
;----------------------------------------------------------------------
$C$DW$283	.dwtag  DW_TAG_TI_branch
	.dwattr $C$DW$283, DW_AT_low_pc(0x00)
	.dwattr $C$DW$283, DW_AT_name("_ReadDARAM0__FUsPvT1")
	.dwattr $C$DW$283, DW_AT_TI_call
           CALL    .S1     _ReadDARAM0__FUsPvT1 ; |244| 
           LDHU    .D2T1   *+SP(12),A4       ; |244| 
           ADDKPC  .S2     $C$RL10,B3,2      ; |244| 

           ADD     .D2     SP,16,B4          ; |244| 
||         MVK     .S1     0xe00,A6          ; |244| 

$C$RL10:   ; CALL OCCURS {_ReadDARAM0__FUsPvT1} {0}  ; |244| 

$C$DW$284	.dwtag  DW_TAG_lexical_block, DW_AT_low_pc(0x00), DW_AT_high_pc(0x00)
$C$DW$285	.dwtag  DW_TAG_variable, DW_AT_name("i")
	.dwattr $C$DW$285, DW_AT_TI_symbol_name("_i")
	.dwattr $C$DW$285, DW_AT_type(*$C$DW$T$10)
	.dwattr $C$DW$285, DW_AT_location[DW_OP_breg31 3604]
	.dwpsn	file "test_c.cpp",line 246,column 11,is_stmt
;----------------------------------------------------------------------
; 246 | #endif                                                                 
;----------------------------------------------------------------------
           ZERO    .L2     B4                ; |246| 
           STW     .D2T2   B4,*+SP(3604)     ; |246| 
	.dwpsn	file "test_c.cpp",line 246,column 18,is_stmt
           MVK     .S2     32,B5             ; |246| 
           CMPLT   .L2     B4,B5,B0          ; |246| 
   [!B0]   BNOP    .S1     $C$L9,5           ; |246| 
           ; BRANCHCC OCCURS {$C$L9}         ; |246| 
;*----------------------------------------------------------------------------*
;*   SOFTWARE PIPELINE INFORMATION
;*      Disqualified loop: Software pipelining disabled
;*----------------------------------------------------------------------------*
$C$L7:    
$C$DW$L$_TestDozu__FP12kdg_rez_test$2$B:
	.dwpsn	file "test_c.cpp",line 248,column 4,is_stmt

           MV      .L2     B4,B5
||         ADDAW   .D2     SP,B4,B4          ; |248| 

           LDW     .D2T2   *+SP(3600),B6     ; |248| 
           LDW     .D2T2   *+B4(16),B7       ; |248| 
           NOP             3
           SHL     .S2     B6,B5,B4          ; |248| 
           CMPEQ   .L2     B7,B4,B0          ; |248| 
   [ B0]   BNOP    .S1     $C$L8,5           ; |248| 
           ; BRANCHCC OCCURS {$C$L8}         ; |248| 
$C$DW$L$_TestDozu__FP12kdg_rez_test$2$E:
;** --------------------------------------------------------------------------*
	.dwpsn	file "test_c.cpp",line 250,column 4,is_stmt
;----------------------------------------------------------------------
; 250 | ReadDARAM0(start_adr, buf, LEN_DUZU_FOR_TEST);                         
;----------------------------------------------------------------------
           MV      .L2     B5,B4
           ADDAW   .D2     SP,B4,B4          ; |250| 
           LDW     .D2T2   *+B4(16),B4       ; |250| 
           LDW     .D2T2   *+SP(4),B7        ; |250| 
           SHL     .S2     B6,B5,B5          ; |250| 
           NOP             2
           XOR     .L2     B5,B4,B4          ; |250| 
           STW     .D2T2   B4,*+B7(16)       ; |250| 
	.dwpsn	file "test_c.cpp",line 251,column 4,is_stmt
           LDW     .D2T2   *+SP(3604),B4     ; |251| 
           LDW     .D2T2   *+SP(8),B5        ; |251| 
           LDW     .D2T2   *+SP(4),B6        ; |251| 
           NOP             3
           MPYLH   .M2     B5,B4,B8          ; |251| 
           MPYLH   .M2     B4,B5,B7          ; |251| 
           MPYU    .M2     B5,B4,B5          ; |251| 
           ADD     .L2     B8,B7,B4          ; |251| 
           SHL     .S2     B4,16,B4          ; |251| 
           ADD     .L2     B5,B4,B4          ; |251| 
           STW     .D2T2   B4,*+B6(12)       ; |251| 
	.dwpsn	file "test_c.cpp",line 252,column 4,is_stmt
;----------------------------------------------------------------------
; 252 | for(int i = 0; i < SH_DOZU; i++)                                       
; 254 |         if(buf[i] != one << i)                                         
;----------------------------------------------------------------------
           BNOP    .S1     $C$L21,4          ; |252| 
           MVK     .L1     0x5,A4            ; |252| 
           ; BRANCH OCCURS {$C$L21}          ; |252| 
;** --------------------------------------------------------------------------*
$C$L8:    
$C$DW$L$_TestDozu__FP12kdg_rez_test$4$B:
	.dwpsn	file "test_c.cpp",line 246,column 31,is_stmt
           ADD     .L2     1,B5,B4           ; |246| 
           STW     .D2T2   B4,*+SP(3604)     ; |246| 
	.dwpsn	file "test_c.cpp",line 246,column 18,is_stmt
           MVK     .S2     32,B5             ; |246| 
           CMPLT   .L2     B4,B5,B0          ; |246| 
   [ B0]   BNOP    .S1     $C$L7,5           ; |246| 
           ; BRANCHCC OCCURS {$C$L7}         ; |246| 
$C$DW$L$_TestDozu__FP12kdg_rez_test$4$E:
;** --------------------------------------------------------------------------*
$C$L9:    
	.dwendtag $C$DW$284


$C$DW$286	.dwtag  DW_TAG_lexical_block, DW_AT_low_pc(0x00), DW_AT_high_pc(0x00)
$C$DW$287	.dwtag  DW_TAG_variable, DW_AT_name("i")
	.dwattr $C$DW$287, DW_AT_TI_symbol_name("_i")
	.dwattr $C$DW$287, DW_AT_type(*$C$DW$T$10)
	.dwattr $C$DW$287, DW_AT_location[DW_OP_breg31 3604]
	.dwpsn	file "test_c.cpp",line 256,column 11,is_stmt
;----------------------------------------------------------------------
; 256 | result->data = buf[i] ^ (one << i);                                    
;----------------------------------------------------------------------
           MVK     .S1     32,A3             ; |256| 
           STW     .D2T1   A3,*+SP(3604)     ; |256| 
	.dwpsn	file "test_c.cpp",line 256,column 24,is_stmt
;----------------------------------------------------------------------
; 257 | result->adrr = i * sh_d;                                               
;----------------------------------------------------------------------

           MV      .L2     B5,B4
||         MVK     .S2     896,B5            ; |256| 

           CMPLT   .L2     B4,B5,B0          ; |256| 
   [!B0]   BNOP    .S1     $C$L13,5          ; |256| 
           ; BRANCHCC OCCURS {$C$L13}        ; |256| 
;*----------------------------------------------------------------------------*
;*   SOFTWARE PIPELINE INFORMATION
;*      Disqualified loop: Software pipelining disabled
;*----------------------------------------------------------------------------*
$C$L10:    
$C$DW$L$_TestDozu__FP12kdg_rez_test$6$B:
	.dwpsn	file "test_c.cpp",line 258,column 4,is_stmt
;----------------------------------------------------------------------
; 258 | return ERR_DOZU_WRCP0_RDSP;                                            
;----------------------------------------------------------------------
           ADDAW   .D2     SP,B4,B4          ; |258| 
           LDW     .D2T2   *+B4(16),B4       ; |258| 
           MVKL    .S2     0x55555555,B5
           MVKH    .S2     0x55555555,B5
           NOP             2
           CMPEQ   .L2     B4,B5,B0          ; |258| 
   [ B0]   BNOP    .S1     $C$L11,5          ; |258| 
           ; BRANCHCC OCCURS {$C$L11}        ; |258| 
$C$DW$L$_TestDozu__FP12kdg_rez_test$6$E:
;** --------------------------------------------------------------------------*
	.dwpsn	file "test_c.cpp",line 260,column 4,is_stmt
           LDW     .D2T2   *+SP(3604),B4     ; |260| 
           LDW     .D2T2   *+SP(4),B31       ; |260| 
           NOP             3
           ADDAW   .D2     SP,B4,B4          ; |260| 
           LDW     .D2T2   *+B4(16),B6       ; |260| 
           NOP             4
           XOR     .L2     B5,B6,B5          ; |260| 
           STW     .D2T2   B5,*+B31(16)      ; |260| 
	.dwpsn	file "test_c.cpp",line 261,column 4,is_stmt
           LDW     .D2T2   *+SP(3604),B7     ; |261| 
           LDW     .D2T2   *+SP(8),B8        ; |261| 
           LDW     .D2T2   *+SP(4),B6        ; |261| 
           NOP             3
           MPYLH   .M2     B8,B7,B5          ; |261| 
           MPYLH   .M2     B7,B8,B4          ; |261| 
           MPYU    .M2     B8,B7,B30         ; |261| 
           ADD     .L2     B5,B4,B4          ; |261| 
           SHL     .S2     B4,16,B4          ; |261| 
           ADD     .L2     B30,B4,B4         ; |261| 
           STW     .D2T2   B4,*+B6(12)       ; |261| 
	.dwpsn	file "test_c.cpp",line 262,column 4,is_stmt
;----------------------------------------------------------------------
; 262 | for(int i = SH_DOZU; i < LEN_BUF_FOR_TEST_DOZU; i+=2)                  
; 264 |         if(buf[i] != DAT555)                                           
;----------------------------------------------------------------------
           BNOP    .S1     $C$L21,4          ; |262| 
           MVK     .L1     0x5,A4            ; |262| 
           ; BRANCH OCCURS {$C$L21}          ; |262| 
;** --------------------------------------------------------------------------*
$C$L11:    
$C$DW$L$_TestDozu__FP12kdg_rez_test$8$B:
	.dwpsn	file "test_c.cpp",line 265,column 4,is_stmt
;----------------------------------------------------------------------
; 266 | result->data = buf[i] ^ DAT555;                                        
;----------------------------------------------------------------------
           LDW     .D2T2   *+SP(3604),B4     ; |265| 
           MVKL    .S2     0xaaaaaaaa,B5
           MVKH    .S2     0xaaaaaaaa,B5
           NOP             2
           ADD     .L2     1,B4,B4           ; |265| 
           ADDAW   .D2     SP,B4,B4          ; |265| 
           LDW     .D2T2   *+B4(16),B4       ; |265| 
           NOP             4
           CMPEQ   .L2     B4,B5,B0          ; |265| 
   [ B0]   BNOP    .S1     $C$L12,5          ; |265| 
           ; BRANCHCC OCCURS {$C$L12}        ; |265| 
$C$DW$L$_TestDozu__FP12kdg_rez_test$8$E:
;** --------------------------------------------------------------------------*
	.dwpsn	file "test_c.cpp",line 267,column 4,is_stmt
;----------------------------------------------------------------------
; 267 | result->adrr = i * sh_d;                                               
;----------------------------------------------------------------------
           LDW     .D2T2   *+SP(3604),B4     ; |267| 
           LDW     .D2T2   *+SP(4),B31       ; |267| 
           NOP             3
           ADD     .L2     1,B4,B4           ; |267| 
           ADDAW   .D2     SP,B4,B4          ; |267| 
           LDW     .D2T2   *+B4(16),B6       ; |267| 
           NOP             4
           XOR     .L2     B5,B6,B5          ; |267| 
           STW     .D2T2   B5,*+B31(16)      ; |267| 
	.dwpsn	file "test_c.cpp",line 268,column 4,is_stmt
;----------------------------------------------------------------------
; 268 | return ERR_DOZU_WRCP0_RDSP;                                            
;----------------------------------------------------------------------
           LDW     .D2T2   *+SP(3604),B4     ; |268| 
           LDW     .D2T2   *+SP(8),B7        ; |268| 
           LDW     .D2T2   *+SP(4),B5        ; |268| 
           NOP             2
           ADD     .L2     1,B4,B6           ; |268| 
           MPYLH   .M2     B7,B6,B8          ; |268| 
           MPYLH   .M2     B6,B7,B4          ; |268| 
           MPYU    .M2     B7,B6,B6          ; |268| 
           ADD     .L2     B8,B4,B4          ; |268| 
           SHL     .S2     B4,16,B4          ; |268| 
           ADD     .L2     B6,B4,B4          ; |268| 
           STW     .D2T2   B4,*+B5(12)       ; |268| 
	.dwpsn	file "test_c.cpp",line 269,column 4,is_stmt
;----------------------------------------------------------------------
; 271 | if(buf[i+1] != DATAAA)                                                 
; 273 | result->data = buf[i+1] ^ DATAAA;                                      
;----------------------------------------------------------------------
           BNOP    .S1     $C$L21,4          ; |269| 
           MVK     .L1     0x5,A4            ; |269| 
           ; BRANCH OCCURS {$C$L21}          ; |269| 
;** --------------------------------------------------------------------------*
$C$L12:    
$C$DW$L$_TestDozu__FP12kdg_rez_test$10$B:
	.dwpsn	file "test_c.cpp",line 256,column 51,is_stmt
           LDW     .D2T2   *+SP(3604),B4     ; |256| 
           NOP             4
           ADD     .L2     2,B4,B4           ; |256| 
           STW     .D2T2   B4,*+SP(3604)     ; |256| 
	.dwpsn	file "test_c.cpp",line 256,column 24,is_stmt
           MVK     .S2     896,B5            ; |256| 
           CMPLT   .L2     B4,B5,B0          ; |256| 
   [ B0]   BNOP    .S1     $C$L10,5          ; |256| 
           ; BRANCHCC OCCURS {$C$L10}        ; |256| 
$C$DW$L$_TestDozu__FP12kdg_rez_test$10$E:
;** --------------------------------------------------------------------------*
$C$L13:    
	.dwendtag $C$DW$286

	.dwpsn	file "test_c.cpp",line 274,column 1,is_stmt
;----------------------------------------------------------------------
; 274 | result->adrr = (i+1) * sh_d;                                           
; 275 | return ERR_DOZU_WRCP0_RDSP;                                            
;----------------------------------------------------------------------
$C$DW$288	.dwtag  DW_TAG_TI_branch
	.dwattr $C$DW$288, DW_AT_low_pc(0x00)
	.dwattr $C$DW$288, DW_AT_name("_ReadDARAM1__FUsPvT1")
	.dwattr $C$DW$288, DW_AT_TI_call
           CALL    .S1     _ReadDARAM1__FUsPvT1 ; |274| 
           LDHU    .D2T1   *+SP(12),A4       ; |274| 
           ADDKPC  .S2     $C$RL11,B3,2      ; |274| 

           ADD     .D2     SP,16,B4          ; |274| 
||         MVK     .S1     0xe00,A6          ; |274| 

$C$RL11:   ; CALL OCCURS {_ReadDARAM1__FUsPvT1} {0}  ; |274| 

$C$DW$289	.dwtag  DW_TAG_lexical_block, DW_AT_low_pc(0x00), DW_AT_high_pc(0x00)
$C$DW$290	.dwtag  DW_TAG_variable, DW_AT_name("i")
	.dwattr $C$DW$290, DW_AT_TI_symbol_name("_i")
	.dwattr $C$DW$290, DW_AT_type(*$C$DW$T$10)
	.dwattr $C$DW$290, DW_AT_location[DW_OP_breg31 3604]
	.dwpsn	file "test_c.cpp",line 276,column 11,is_stmt
           ZERO    .L2     B4                ; |276| 
           STW     .D2T2   B4,*+SP(3604)     ; |276| 
	.dwpsn	file "test_c.cpp",line 276,column 18,is_stmt
           MVK     .S2     32,B5             ; |276| 
           CMPLT   .L2     B4,B5,B0          ; |276| 
   [!B0]   BNOP    .S1     $C$L16,5          ; |276| 
           ; BRANCHCC OCCURS {$C$L16}        ; |276| 
;*----------------------------------------------------------------------------*
;*   SOFTWARE PIPELINE INFORMATION
;*      Disqualified loop: Software pipelining disabled
;*----------------------------------------------------------------------------*
$C$L14:    
$C$DW$L$_TestDozu__FP12kdg_rez_test$12$B:
	.dwpsn	file "test_c.cpp",line 278,column 4,is_stmt
           MV      .L2     B4,B6
           ADDAW   .D2     SP,B6,B6          ; |278| 

           MV      .L2     B4,B5
||         LDW     .D2T2   *+SP(3600),B4     ; |278| 

           LDW     .D2T2   *+B6(16),B6       ; |278| 
           NOP             3
           SHL     .S2     B4,B5,B4          ; |278| 
           CMPEQ   .L2     B6,B4,B0          ; |278| 
   [ B0]   BNOP    .S1     $C$L15,5          ; |278| 
           ; BRANCHCC OCCURS {$C$L15}        ; |278| 
$C$DW$L$_TestDozu__FP12kdg_rez_test$12$E:
;** --------------------------------------------------------------------------*
	.dwpsn	file "test_c.cpp",line 280,column 4,is_stmt
;----------------------------------------------------------------------
; 280 | ReadDARAM1(start_adr, buf, LEN_DUZU_FOR_TEST);                         
;----------------------------------------------------------------------
           MV      .L2     B5,B4
           ADDAW   .D2     SP,B4,B4          ; |280| 
           LDW     .D2T2   *+SP(3600),B6     ; |280| 
           LDW     .D2T2   *+B4(16),B4       ; |280| 
           LDW     .D2T2   *+SP(4),B7        ; |280| 
           NOP             2
           SHL     .S2     B6,B5,B5          ; |280| 
           XOR     .L2     B5,B4,B4          ; |280| 
           STW     .D2T2   B4,*+B7(16)       ; |280| 
	.dwpsn	file "test_c.cpp",line 281,column 4,is_stmt
           LDW     .D2T2   *+SP(8),B8        ; |281| 
           LDW     .D2T2   *+SP(3604),B4     ; |281| 
           LDW     .D2T2   *+SP(4),B7        ; |281| 
           NOP             3
           MPYLH   .M2     B8,B4,B5          ; |281| 
           MPYLH   .M2     B4,B8,B6          ; |281| 
           NOP             1

           ADD     .L2     B5,B6,B4          ; |281| 
||         MPYU    .M2     B8,B4,B5          ; |281| 

           SHL     .S2     B4,16,B4          ; |281| 
           ADD     .L2     B5,B4,B4          ; |281| 
           STW     .D2T2   B4,*+B7(12)       ; |281| 
	.dwpsn	file "test_c.cpp",line 282,column 4,is_stmt
;----------------------------------------------------------------------
; 282 | for(int i = 0; i < SH_DOZU; i++)                                       
; 284 |         if(buf[i] != one << i)                                         
;----------------------------------------------------------------------
           BNOP    .S1     $C$L21,4          ; |282| 
           MVK     .L1     0x6,A4            ; |282| 
           ; BRANCH OCCURS {$C$L21}          ; |282| 
;** --------------------------------------------------------------------------*
$C$L15:    
$C$DW$L$_TestDozu__FP12kdg_rez_test$14$B:
	.dwpsn	file "test_c.cpp",line 276,column 31,is_stmt
           ADD     .L2     1,B5,B4           ; |276| 
           STW     .D2T2   B4,*+SP(3604)     ; |276| 
	.dwpsn	file "test_c.cpp",line 276,column 18,is_stmt
           MVK     .S2     32,B5             ; |276| 
           CMPLT   .L2     B4,B5,B0          ; |276| 
   [ B0]   BNOP    .S1     $C$L14,5          ; |276| 
           ; BRANCHCC OCCURS {$C$L14}        ; |276| 
$C$DW$L$_TestDozu__FP12kdg_rez_test$14$E:
;** --------------------------------------------------------------------------*
$C$L16:    
	.dwendtag $C$DW$289


$C$DW$291	.dwtag  DW_TAG_lexical_block, DW_AT_low_pc(0x00), DW_AT_high_pc(0x00)
$C$DW$292	.dwtag  DW_TAG_variable, DW_AT_name("i")
	.dwattr $C$DW$292, DW_AT_TI_symbol_name("_i")
	.dwattr $C$DW$292, DW_AT_type(*$C$DW$T$10)
	.dwattr $C$DW$292, DW_AT_location[DW_OP_breg31 3604]
	.dwpsn	file "test_c.cpp",line 286,column 11,is_stmt
;----------------------------------------------------------------------
; 286 | result->data = buf[i] ^ (one << i);                                    
;----------------------------------------------------------------------
           MVK     .S1     32,A3             ; |286| 
           STW     .D2T1   A3,*+SP(3604)     ; |286| 
	.dwpsn	file "test_c.cpp",line 286,column 24,is_stmt
;----------------------------------------------------------------------
; 287 | result->adrr = i * sh_d;                                               
;----------------------------------------------------------------------

           MV      .L2     B5,B4
||         MVK     .S2     896,B5            ; |286| 

           CMPLT   .L2     B4,B5,B0          ; |286| 
   [!B0]   BNOP    .S1     $C$L20,5          ; |286| 
           ; BRANCHCC OCCURS {$C$L20}        ; |286| 
;*----------------------------------------------------------------------------*
;*   SOFTWARE PIPELINE INFORMATION
;*      Disqualified loop: Software pipelining disabled
;*----------------------------------------------------------------------------*
$C$L17:    
$C$DW$L$_TestDozu__FP12kdg_rez_test$16$B:
	.dwpsn	file "test_c.cpp",line 288,column 4,is_stmt
;----------------------------------------------------------------------
; 288 | return ERR_DOZU_WRCP1_RDSP;                                            
;----------------------------------------------------------------------
           ADDAW   .D2     SP,B4,B4          ; |288| 
           LDW     .D2T2   *+B4(16),B4       ; |288| 
           MVKL    .S2     0x55555555,B5
           MVKH    .S2     0x55555555,B5
           NOP             2
           CMPEQ   .L2     B4,B5,B0          ; |288| 
   [ B0]   BNOP    .S1     $C$L18,5          ; |288| 
           ; BRANCHCC OCCURS {$C$L18}        ; |288| 
$C$DW$L$_TestDozu__FP12kdg_rez_test$16$E:
;** --------------------------------------------------------------------------*
	.dwpsn	file "test_c.cpp",line 290,column 4,is_stmt
           LDW     .D2T2   *+SP(3604),B4     ; |290| 
           LDW     .D2T2   *+SP(4),B31       ; |290| 
           NOP             3
           ADDAW   .D2     SP,B4,B4          ; |290| 
           LDW     .D2T2   *+B4(16),B6       ; |290| 
           NOP             4
           XOR     .L2     B5,B6,B5          ; |290| 
           STW     .D2T2   B5,*+B31(16)      ; |290| 
	.dwpsn	file "test_c.cpp",line 291,column 4,is_stmt
           LDW     .D2T2   *+SP(3604),B4     ; |291| 
           LDW     .D2T2   *+SP(8),B6        ; |291| 
           LDW     .D2T2   *+SP(4),B5        ; |291| 
           NOP             3
           MPYLH   .M2     B6,B4,B8          ; |291| 
           MPYLH   .M2     B4,B6,B7          ; |291| 
           MPYU    .M2     B6,B4,B6          ; |291| 
           ADD     .L2     B8,B7,B4          ; |291| 
           SHL     .S2     B4,16,B4          ; |291| 
           ADD     .L2     B6,B4,B4          ; |291| 
           STW     .D2T2   B4,*+B5(12)       ; |291| 
	.dwpsn	file "test_c.cpp",line 292,column 4,is_stmt
;----------------------------------------------------------------------
; 292 | for(int i = SH_DOZU; i < LEN_BUF_FOR_TEST_DOZU; i+=2)                  
; 294 |         if(buf[i] != DAT555)                                           
;----------------------------------------------------------------------
           BNOP    .S1     $C$L21,4          ; |292| 
           MVK     .L1     0x6,A4            ; |292| 
           ; BRANCH OCCURS {$C$L21}          ; |292| 
;** --------------------------------------------------------------------------*
$C$L18:    
$C$DW$L$_TestDozu__FP12kdg_rez_test$18$B:
	.dwpsn	file "test_c.cpp",line 295,column 4,is_stmt
;----------------------------------------------------------------------
; 296 | result->data = buf[i] ^ DAT555;                                        
;----------------------------------------------------------------------
           LDW     .D2T2   *+SP(3604),B4     ; |295| 
           MVKL    .S2     0xaaaaaaaa,B5
           MVKH    .S2     0xaaaaaaaa,B5
           NOP             2
           ADD     .L2     1,B4,B4           ; |295| 
           ADDAW   .D2     SP,B4,B4          ; |295| 
           LDW     .D2T2   *+B4(16),B4       ; |295| 
           NOP             4
           CMPEQ   .L2     B4,B5,B0          ; |295| 
   [ B0]   BNOP    .S1     $C$L19,5          ; |295| 
           ; BRANCHCC OCCURS {$C$L19}        ; |295| 
$C$DW$L$_TestDozu__FP12kdg_rez_test$18$E:
;** --------------------------------------------------------------------------*
	.dwpsn	file "test_c.cpp",line 297,column 4,is_stmt
;----------------------------------------------------------------------
; 297 | result->adrr = i * sh_d;                                               
;----------------------------------------------------------------------
           LDW     .D2T2   *+SP(3604),B4     ; |297| 
           LDW     .D2T2   *+SP(4),B31       ; |297| 
           NOP             3
           ADD     .L2     1,B4,B4           ; |297| 
           ADDAW   .D2     SP,B4,B4          ; |297| 
           LDW     .D2T2   *+B4(16),B6       ; |297| 
           NOP             4
           XOR     .L2     B5,B6,B5          ; |297| 
           STW     .D2T2   B5,*+B31(16)      ; |297| 
	.dwpsn	file "test_c.cpp",line 298,column 4,is_stmt
;----------------------------------------------------------------------
; 298 | return ERR_DOZU_WRCP1_RDSP;                                            
;----------------------------------------------------------------------
           LDW     .D2T2   *+SP(3604),B4     ; |298| 
           LDW     .D2T2   *+SP(8),B5        ; |298| 
           LDW     .D2T2   *+SP(4),B7        ; |298| 
           NOP             2
           ADD     .L2     1,B4,B4           ; |298| 
           MPYLH   .M2     B4,B5,B8          ; |298| 
           MPYLH   .M2     B5,B4,B6          ; |298| 
           MPYU    .M2     B5,B4,B5          ; |298| 
           ADD     .L2     B6,B8,B4          ; |298| 
           SHL     .S2     B4,16,B4          ; |298| 
           ADD     .L2     B5,B4,B4          ; |298| 
           STW     .D2T2   B4,*+B7(12)       ; |298| 
	.dwpsn	file "test_c.cpp",line 299,column 4,is_stmt
;----------------------------------------------------------------------
; 301 | if(buf[i+1] != DATAAA)                                                 
;----------------------------------------------------------------------
           BNOP    .S1     $C$L21,4          ; |299| 
           MVK     .L1     0x6,A4            ; |299| 
           ; BRANCH OCCURS {$C$L21}          ; |299| 
;** --------------------------------------------------------------------------*
$C$L19:    
$C$DW$L$_TestDozu__FP12kdg_rez_test$20$B:
	.dwpsn	file "test_c.cpp",line 286,column 51,is_stmt
           LDW     .D2T2   *+SP(3604),B4     ; |286| 
           NOP             4
           ADD     .L2     2,B4,B4           ; |286| 
           STW     .D2T2   B4,*+SP(3604)     ; |286| 
	.dwpsn	file "test_c.cpp",line 286,column 24,is_stmt
           MVK     .S2     896,B5            ; |286| 
           CMPLT   .L2     B4,B5,B0          ; |286| 
   [ B0]   BNOP    .S1     $C$L17,5          ; |286| 
           ; BRANCHCC OCCURS {$C$L17}        ; |286| 
$C$DW$L$_TestDozu__FP12kdg_rez_test$20$E:
;** --------------------------------------------------------------------------*
$C$L20:    
	.dwendtag $C$DW$291

	.dwpsn	file "test_c.cpp",line 303,column 1,is_stmt
;----------------------------------------------------------------------
; 303 | result->data = buf[i+1] ^ DATAAA;                                      
; 304 | result->adrr = (i+1) * sh_d;                                           
;----------------------------------------------------------------------
$C$DW$293	.dwtag  DW_TAG_TI_branch
	.dwattr $C$DW$293, DW_AT_low_pc(0x00)
	.dwattr $C$DW$293, DW_AT_name("_WriteDARAM__FUsPvT1")
	.dwattr $C$DW$293, DW_AT_TI_call
           CALL    .S1     _WriteDARAM__FUsPvT1 ; |303| 
           LDHU    .D2T1   *+SP(12),A4       ; |303| 
           ADDKPC  .S2     $C$RL12,B3,2      ; |303| 

           ADD     .D2     SP,16,B4          ; |303| 
||         MVK     .S1     0xe00,A6          ; |303| 

$C$RL12:   ; CALL OCCURS {_WriteDARAM__FUsPvT1} {0}  ; |303| 
	.dwpsn	file "test_c.cpp",line 305,column 1,is_stmt
;----------------------------------------------------------------------
; 305 | return ERR_DOZU_WRCP1_RDSP;                                            
;----------------------------------------------------------------------
           ZERO    .L1     A4                ; |305| 
;** --------------------------------------------------------------------------*
$C$L21:    
	.dwpsn	file "test_c.cpp",line 306,column 1,is_stmt
           LDW     .D2T2   *+SP(3608),B3     ; |306| 
           NOP             4
	.dwcfi	restore_reg, 19
           ADDK    .S2     3608,SP           ; |306| 
	.dwcfi	cfa_offset, 0
	.dwcfi	cfa_offset, 0
$C$DW$294	.dwtag  DW_TAG_TI_branch
	.dwattr $C$DW$294, DW_AT_low_pc(0x00)
	.dwattr $C$DW$294, DW_AT_TI_return
           RETNOP  .S2     B3,5              ; |306| 
           ; BRANCH OCCURS {B3}              ; |306| 

$C$DW$295	.dwtag  DW_TAG_TI_loop
	.dwattr $C$DW$295, DW_AT_name("C:\1901VC1T_Inteltech\3rdPartyLIB\dsp_core\C6000\tpo_amoeba\source\test_c.asm:$C$L17:1:1517815039")
	.dwattr $C$DW$295, DW_AT_TI_begin_file("test_c.cpp")
	.dwattr $C$DW$295, DW_AT_TI_begin_line(0x11e)
	.dwattr $C$DW$295, DW_AT_TI_end_line(0x12d)
$C$DW$296	.dwtag  DW_TAG_TI_loop_range
	.dwattr $C$DW$296, DW_AT_low_pc($C$DW$L$_TestDozu__FP12kdg_rez_test$16$B)
	.dwattr $C$DW$296, DW_AT_high_pc($C$DW$L$_TestDozu__FP12kdg_rez_test$16$E)
$C$DW$297	.dwtag  DW_TAG_TI_loop_range
	.dwattr $C$DW$297, DW_AT_low_pc($C$DW$L$_TestDozu__FP12kdg_rez_test$18$B)
	.dwattr $C$DW$297, DW_AT_high_pc($C$DW$L$_TestDozu__FP12kdg_rez_test$18$E)
$C$DW$298	.dwtag  DW_TAG_TI_loop_range
	.dwattr $C$DW$298, DW_AT_low_pc($C$DW$L$_TestDozu__FP12kdg_rez_test$20$B)
	.dwattr $C$DW$298, DW_AT_high_pc($C$DW$L$_TestDozu__FP12kdg_rez_test$20$E)
	.dwendtag $C$DW$295


$C$DW$299	.dwtag  DW_TAG_TI_loop
	.dwattr $C$DW$299, DW_AT_name("C:\1901VC1T_Inteltech\3rdPartyLIB\dsp_core\C6000\tpo_amoeba\source\test_c.asm:$C$L14:1:1517815039")
	.dwattr $C$DW$299, DW_AT_TI_begin_file("test_c.cpp")
	.dwattr $C$DW$299, DW_AT_TI_begin_line(0x114)
	.dwattr $C$DW$299, DW_AT_TI_end_line(0x11c)
$C$DW$300	.dwtag  DW_TAG_TI_loop_range
	.dwattr $C$DW$300, DW_AT_low_pc($C$DW$L$_TestDozu__FP12kdg_rez_test$12$B)
	.dwattr $C$DW$300, DW_AT_high_pc($C$DW$L$_TestDozu__FP12kdg_rez_test$12$E)
$C$DW$301	.dwtag  DW_TAG_TI_loop_range
	.dwattr $C$DW$301, DW_AT_low_pc($C$DW$L$_TestDozu__FP12kdg_rez_test$14$B)
	.dwattr $C$DW$301, DW_AT_high_pc($C$DW$L$_TestDozu__FP12kdg_rez_test$14$E)
	.dwendtag $C$DW$299


$C$DW$302	.dwtag  DW_TAG_TI_loop
	.dwattr $C$DW$302, DW_AT_name("C:\1901VC1T_Inteltech\3rdPartyLIB\dsp_core\C6000\tpo_amoeba\source\test_c.asm:$C$L10:1:1517815039")
	.dwattr $C$DW$302, DW_AT_TI_begin_file("test_c.cpp")
	.dwattr $C$DW$302, DW_AT_TI_begin_line(0x100)
	.dwattr $C$DW$302, DW_AT_TI_end_line(0x10f)
$C$DW$303	.dwtag  DW_TAG_TI_loop_range
	.dwattr $C$DW$303, DW_AT_low_pc($C$DW$L$_TestDozu__FP12kdg_rez_test$6$B)
	.dwattr $C$DW$303, DW_AT_high_pc($C$DW$L$_TestDozu__FP12kdg_rez_test$6$E)
$C$DW$304	.dwtag  DW_TAG_TI_loop_range
	.dwattr $C$DW$304, DW_AT_low_pc($C$DW$L$_TestDozu__FP12kdg_rez_test$8$B)
	.dwattr $C$DW$304, DW_AT_high_pc($C$DW$L$_TestDozu__FP12kdg_rez_test$8$E)
$C$DW$305	.dwtag  DW_TAG_TI_loop_range
	.dwattr $C$DW$305, DW_AT_low_pc($C$DW$L$_TestDozu__FP12kdg_rez_test$10$B)
	.dwattr $C$DW$305, DW_AT_high_pc($C$DW$L$_TestDozu__FP12kdg_rez_test$10$E)
	.dwendtag $C$DW$302


$C$DW$306	.dwtag  DW_TAG_TI_loop
	.dwattr $C$DW$306, DW_AT_name("C:\1901VC1T_Inteltech\3rdPartyLIB\dsp_core\C6000\tpo_amoeba\source\test_c.asm:$C$L7:1:1517815039")
	.dwattr $C$DW$306, DW_AT_TI_begin_file("test_c.cpp")
	.dwattr $C$DW$306, DW_AT_TI_begin_line(0xf6)
	.dwattr $C$DW$306, DW_AT_TI_end_line(0xfe)
$C$DW$307	.dwtag  DW_TAG_TI_loop_range
	.dwattr $C$DW$307, DW_AT_low_pc($C$DW$L$_TestDozu__FP12kdg_rez_test$2$B)
	.dwattr $C$DW$307, DW_AT_high_pc($C$DW$L$_TestDozu__FP12kdg_rez_test$2$E)
$C$DW$308	.dwtag  DW_TAG_TI_loop_range
	.dwattr $C$DW$308, DW_AT_low_pc($C$DW$L$_TestDozu__FP12kdg_rez_test$4$B)
	.dwattr $C$DW$308, DW_AT_high_pc($C$DW$L$_TestDozu__FP12kdg_rez_test$4$E)
	.dwendtag $C$DW$306

	.dwattr $C$DW$276, DW_AT_TI_end_file("test_c.cpp")
	.dwattr $C$DW$276, DW_AT_TI_end_line(0x132)
	.dwattr $C$DW$276, DW_AT_TI_end_column(0x01)
	.dwendentry
	.dwendtag $C$DW$276

	.sect	".text"
	.clink
	.global	_TestMove__Fv

$C$DW$309	.dwtag  DW_TAG_subprogram, DW_AT_name("TestMove")
	.dwattr $C$DW$309, DW_AT_low_pc(_TestMove__Fv)
	.dwattr $C$DW$309, DW_AT_high_pc(0x00)
	.dwattr $C$DW$309, DW_AT_TI_symbol_name("_TestMove__Fv")
	.dwattr $C$DW$309, DW_AT_external
	.dwattr $C$DW$309, DW_AT_type(*$C$DW$T$47)
	.dwattr $C$DW$309, DW_AT_TI_begin_file("test_c.cpp")
	.dwattr $C$DW$309, DW_AT_TI_begin_line(0x136)
	.dwattr $C$DW$309, DW_AT_TI_begin_column(0x08)
	.dwpsn	file "test_c.cpp",line 311,column 1,is_stmt,address _TestMove__Fv

	.dwfde $C$DW$CIE, _TestMove__Fv

;******************************************************************************
;* FUNCTION NAME: TestMove()                                                  *
;*                                                                            *
;*   Regs Modified     : A3,A4,A6,B0,B3,B4,B5,B6,SP,B31                       *
;*   Regs Used         : A3,A4,A6,B0,B3,B4,B5,B6,SP,B31                       *
;*   Local Frame Size  : 0 Args + 3596 Auto + 4 Save = 3600 byte              *
;******************************************************************************
_TestMove__Fv:
;** --------------------------------------------------------------------------*
;----------------------------------------------------------------------
; 311 | return TPO_OK;                                                         
; 315 | //---------------------------------------------------------------------
;     | -------                                                                
; 316 | uint32 TestMove()                                                      
;----------------------------------------------------------------------
	.dwcfi	cfa_offset, 0
	.dwcfi	save_reg_to_reg, 228, 19
           ADDK    .S2     -3600,SP          ; |311| 
	.dwcfi	cfa_offset, 3600
           STW     .D2T2   B3,*+SP(3600)     ; |311| 
	.dwcfi	save_reg_to_mem, 19, 0
$C$DW$310	.dwtag  DW_TAG_variable, DW_AT_name("start_adr")
	.dwattr $C$DW$310, DW_AT_TI_symbol_name("_start_adr")
	.dwattr $C$DW$310, DW_AT_type(*$C$DW$T$47)
	.dwattr $C$DW$310, DW_AT_location[DW_OP_breg31 4]
$C$DW$311	.dwtag  DW_TAG_variable, DW_AT_name("buf")
	.dwattr $C$DW$311, DW_AT_TI_symbol_name("_buf")
	.dwattr $C$DW$311, DW_AT_type(*$C$DW$T$740)
	.dwattr $C$DW$311, DW_AT_location[DW_OP_breg31 8]
$C$DW$312	.dwtag  DW_TAG_variable, DW_AT_name("one")
	.dwattr $C$DW$312, DW_AT_TI_symbol_name("_one")
	.dwattr $C$DW$312, DW_AT_type(*$C$DW$T$47)
	.dwattr $C$DW$312, DW_AT_location[DW_OP_breg31 3592]
	.dwpsn	file "test_c.cpp",line 317,column 8,is_stmt
;----------------------------------------------------------------------
; 318 | //uint32 res = 0;                                                      
; 319 | //int error = 0;                                                       
; 320 | #ifdef TPO_M711B                                                       
; 321 | uint32 start_adr = 0x100;                                              
; 322 | #else                                                                  
; 323 | uint32 start_adr = 0;                                                  
;----------------------------------------------------------------------
           ZERO    .L1     A3                ; |317| 
           STW     .D2T1   A3,*+SP(4)        ; |317| 
	.dwpsn	file "test_c.cpp",line 324,column 8,is_stmt
;----------------------------------------------------------------------
; 324 | #endif                                                                 
; 326 | #ifdef TPO5                                                            
; 327 | uint32 buf[LEN_BUF_FOR_TEST_DOZU];                                     
; 328 | #define DAT555  0x55555555                                             
; 329 | #define DATAAA  0xAAAAAAAA                                             
; 330 | uint32 one = 1;                                                        
; 331 | #else                                                                  
; 332 | uint64 buf[LEN_BUF_FOR_TEST_DOZU];                                     
; 333 | #define DAT555  0x5555555555555555                                     
;----------------------------------------------------------------------
           MVK     .L1     1,A3              ; |324| 
           STW     .D2T1   A3,*+SP(3592)     ; |324| 

$C$DW$313	.dwtag  DW_TAG_lexical_block, DW_AT_low_pc(0x00), DW_AT_high_pc(0x00)
$C$DW$314	.dwtag  DW_TAG_variable, DW_AT_name("i")
	.dwattr $C$DW$314, DW_AT_TI_symbol_name("_i")
	.dwattr $C$DW$314, DW_AT_type(*$C$DW$T$10)
	.dwattr $C$DW$314, DW_AT_location[DW_OP_breg31 3596]
	.dwpsn	file "test_c.cpp",line 334,column 10,is_stmt
;----------------------------------------------------------------------
; 334 | #define DATAAA  0xAAAAAAAAAAAAAAAA                                     
;----------------------------------------------------------------------
           ZERO    .L2     B4                ; |334| 
           STW     .D2T2   B4,*+SP(3596)     ; |334| 
	.dwpsn	file "test_c.cpp",line 334,column 17,is_stmt
           MVK     .S2     32,B5             ; |334| 
           CMPLT   .L2     B4,B5,B0          ; |334| 
   [!B0]   BNOP    .S1     $C$L23,5          ; |334| 
           ; BRANCHCC OCCURS {$C$L23}        ; |334| 
;*----------------------------------------------------------------------------*
;*   SOFTWARE PIPELINE INFORMATION
;*      Disqualified loop: Software pipelining disabled
;*----------------------------------------------------------------------------*
$C$L22:    
$C$DW$L$_TestMove__Fv$2$B:
	.dwpsn	file "test_c.cpp",line 335,column 3,is_stmt
;----------------------------------------------------------------------
; 335 | uint64 one = 1;                                                        
; 336 | #endif                                                                 
;----------------------------------------------------------------------

           MV      .L2     B4,B6
||         MV      .S2     B4,B5
||         LDW     .D2T2   *+SP(3592),B4     ; |335| 

           NOP             4

           SHL     .S2     B4,B6,B5          ; |335| 
||         ADDAW   .D2     SP,B5,B4          ; |335| 

           STW     .D2T2   B5,*+B4(8)        ; |335| 
	.dwpsn	file "test_c.cpp",line 334,column 30,is_stmt
           LDW     .D2T2   *+SP(3596),B4     ; |334| 
           NOP             4
           ADD     .L2     1,B4,B4           ; |334| 
           STW     .D2T2   B4,*+SP(3596)     ; |334| 
	.dwpsn	file "test_c.cpp",line 334,column 17,is_stmt
           MVK     .S2     32,B5             ; |334| 
           CMPLT   .L2     B4,B5,B0          ; |334| 
   [ B0]   BNOP    .S1     $C$L22,5          ; |334| 
           ; BRANCHCC OCCURS {$C$L22}        ; |334| 
$C$DW$L$_TestMove__Fv$2$E:
;** --------------------------------------------------------------------------*
$C$L23:    
	.dwendtag $C$DW$313


$C$DW$315	.dwtag  DW_TAG_lexical_block, DW_AT_low_pc(0x00), DW_AT_high_pc(0x00)
$C$DW$316	.dwtag  DW_TAG_variable, DW_AT_name("i")
	.dwattr $C$DW$316, DW_AT_TI_symbol_name("_i")
	.dwattr $C$DW$316, DW_AT_type(*$C$DW$T$10)
	.dwattr $C$DW$316, DW_AT_location[DW_OP_breg31 3596]
	.dwpsn	file "test_c.cpp",line 337,column 10,is_stmt
           MVK     .S1     32,A3             ; |337| 
           STW     .D2T1   A3,*+SP(3596)     ; |337| 
	.dwpsn	file "test_c.cpp",line 337,column 23,is_stmt

           MV      .L2     B5,B4
||         MVK     .S2     896,B5            ; |337| 

           CMPLT   .L2     B4,B5,B0          ; |337| 
   [!B0]   BNOP    .S1     $C$L25,5          ; |337| 
           ; BRANCHCC OCCURS {$C$L25}        ; |337| 
;*----------------------------------------------------------------------------*
;*   SOFTWARE PIPELINE INFORMATION
;*      Disqualified loop: Software pipelining disabled
;*----------------------------------------------------------------------------*
$C$L24:    
$C$DW$L$_TestMove__Fv$4$B:
	.dwpsn	file "test_c.cpp",line 339,column 3,is_stmt
           MVKL    .S1     0x55555555,A3

           MVKH    .S1     0x55555555,A3
||         ADDAW   .D2     SP,B4,B4          ; |339| 

           STW     .D2T1   A3,*+B4(8)        ; |339| 
	.dwpsn	file "test_c.cpp",line 340,column 3,is_stmt
;----------------------------------------------------------------------
; 340 | for(int i = 0; i < SH_DOZU; i++)                                       
; 341 |         buf[i] = one << i;                                             
;----------------------------------------------------------------------
           LDW     .D2T2   *+SP(3596),B5     ; |340| 
           MVKL    .S2     0xaaaaaaaa,B4
           MVKH    .S2     0xaaaaaaaa,B4
           NOP             2
           ADD     .L2     1,B5,B5           ; |340| 
           ADDAW   .D2     SP,B5,B5          ; |340| 
           STW     .D2T2   B4,*+B5(8)        ; |340| 
	.dwpsn	file "test_c.cpp",line 337,column 50,is_stmt
           LDW     .D2T2   *+SP(3596),B4     ; |337| 
           NOP             4
           ADD     .L2     2,B4,B4           ; |337| 
           STW     .D2T2   B4,*+SP(3596)     ; |337| 
	.dwpsn	file "test_c.cpp",line 337,column 23,is_stmt
           MVK     .S2     896,B5            ; |337| 
           CMPLT   .L2     B4,B5,B0          ; |337| 
   [ B0]   BNOP    .S1     $C$L24,5          ; |337| 
           ; BRANCHCC OCCURS {$C$L24}        ; |337| 
$C$DW$L$_TestMove__Fv$4$E:
;** --------------------------------------------------------------------------*
$C$L25:    
	.dwendtag $C$DW$315

	.dwpsn	file "test_c.cpp",line 343,column 2,is_stmt
;----------------------------------------------------------------------
; 343 | for(int i = SH_DOZU; i < LEN_BUF_FOR_TEST_DOZU; i+=2)                  
;----------------------------------------------------------------------
$C$DW$317	.dwtag  DW_TAG_TI_branch
	.dwattr $C$DW$317, DW_AT_low_pc(0x00)
	.dwattr $C$DW$317, DW_AT_name("_WriteDARAM__FUsPvT1")
	.dwattr $C$DW$317, DW_AT_TI_call
           CALL    .S1     _WriteDARAM__FUsPvT1 ; |343| 
           LDHU    .D2T1   *+SP(4),A4        ; |343| 
           ADDKPC  .S2     $C$RL13,B3,2      ; |343| 

           ADD     .L2     8,SP,B4           ; |343| 
||         MVK     .S1     0xe00,A6          ; |343| 

$C$RL13:   ; CALL OCCURS {_WriteDARAM__FUsPvT1} {0}  ; |343| 
	.dwpsn	file "test_c.cpp",line 345,column 1,is_stmt
;----------------------------------------------------------------------
; 345 | buf[i] = DAT555;                                                       
;----------------------------------------------------------------------
           ZERO    .L1     A4                ; |345| 
	.dwpsn	file "test_c.cpp",line 346,column 1,is_stmt
;----------------------------------------------------------------------
; 346 | buf[i+1] = DATAAA;                                                     
;----------------------------------------------------------------------
           LDW     .D2T2   *+SP(3600),B3     ; |346| 
           NOP             4
	.dwcfi	restore_reg, 19
           ADDK    .S2     3600,SP           ; |346| 
	.dwcfi	cfa_offset, 0
	.dwcfi	cfa_offset, 0
$C$DW$318	.dwtag  DW_TAG_TI_branch
	.dwattr $C$DW$318, DW_AT_low_pc(0x00)
	.dwattr $C$DW$318, DW_AT_TI_return
           RETNOP  .S2     B3,5              ; |346| 
           ; BRANCH OCCURS {B3}              ; |346| 

$C$DW$319	.dwtag  DW_TAG_TI_loop
	.dwattr $C$DW$319, DW_AT_name("C:\1901VC1T_Inteltech\3rdPartyLIB\dsp_core\C6000\tpo_amoeba\source\test_c.asm:$C$L24:1:1517815039")
	.dwattr $C$DW$319, DW_AT_TI_begin_file("test_c.cpp")
	.dwattr $C$DW$319, DW_AT_TI_begin_line(0x151)
	.dwattr $C$DW$319, DW_AT_TI_end_line(0x155)
$C$DW$320	.dwtag  DW_TAG_TI_loop_range
	.dwattr $C$DW$320, DW_AT_low_pc($C$DW$L$_TestMove__Fv$4$B)
	.dwattr $C$DW$320, DW_AT_high_pc($C$DW$L$_TestMove__Fv$4$E)
	.dwendtag $C$DW$319


$C$DW$321	.dwtag  DW_TAG_TI_loop
	.dwattr $C$DW$321, DW_AT_name("C:\1901VC1T_Inteltech\3rdPartyLIB\dsp_core\C6000\tpo_amoeba\source\test_c.asm:$C$L22:1:1517815039")
	.dwattr $C$DW$321, DW_AT_TI_begin_file("test_c.cpp")
	.dwattr $C$DW$321, DW_AT_TI_begin_line(0x14e)
	.dwattr $C$DW$321, DW_AT_TI_end_line(0x14f)
$C$DW$322	.dwtag  DW_TAG_TI_loop_range
	.dwattr $C$DW$322, DW_AT_low_pc($C$DW$L$_TestMove__Fv$2$B)
	.dwattr $C$DW$322, DW_AT_high_pc($C$DW$L$_TestMove__Fv$2$E)
	.dwendtag $C$DW$321

	.dwattr $C$DW$309, DW_AT_TI_end_file("test_c.cpp")
	.dwattr $C$DW$309, DW_AT_TI_end_line(0x15a)
	.dwattr $C$DW$309, DW_AT_TI_end_column(0x01)
	.dwendentry
	.dwendtag $C$DW$309

	.sect	".text"
	.clink
	.global	_alp_sinhrosig_tst__Fv

$C$DW$323	.dwtag  DW_TAG_subprogram, DW_AT_name("alp_sinhrosig_tst")
	.dwattr $C$DW$323, DW_AT_low_pc(_alp_sinhrosig_tst__Fv)
	.dwattr $C$DW$323, DW_AT_high_pc(0x00)
	.dwattr $C$DW$323, DW_AT_TI_symbol_name("_alp_sinhrosig_tst__Fv")
	.dwattr $C$DW$323, DW_AT_external
	.dwattr $C$DW$323, DW_AT_TI_begin_file("test_c.cpp")
	.dwattr $C$DW$323, DW_AT_TI_begin_line(0x164)
	.dwattr $C$DW$323, DW_AT_TI_begin_column(0x06)
	.dwpsn	file "test_c.cpp",line 357,column 1,is_stmt,address _alp_sinhrosig_tst__Fv

	.dwfde $C$DW$CIE, _alp_sinhrosig_tst__Fv
;----------------------------------------------------------------------
; 356 | #define GPIO_OUT_DATA       (*(volatile uint32*)0x02b00014) // GPIO Out
;     | put Data register                                                      
;----------------------------------------------------------------------

;******************************************************************************
;* FUNCTION NAME: alp_sinhrosig_tst()                                         *
;*                                                                            *
;*   Regs Modified     : A3,B4,B5,B6,SP                                       *
;*   Regs Used         : A3,B3,B4,B5,B6,SP                                    *
;*   Local Frame Size  : 0 Args + 4 Auto + 0 Save = 4 byte                    *
;******************************************************************************
_alp_sinhrosig_tst__Fv:
;** --------------------------------------------------------------------------*
;----------------------------------------------------------------------
; 357 | #define GPIO_SET_DATA       (*(volatile uint32*)0x02b00018) // GPIO Set
;     |  Data register                                                         
;----------------------------------------------------------------------
	.dwcfi	cfa_offset, 0
	.dwcfi	save_reg_to_reg, 228, 19
           SUB     .L2     SP,8,SP           ; |357| 
	.dwcfi	cfa_offset, 8
$C$DW$324	.dwtag  DW_TAG_variable, DW_AT_name("res")
	.dwattr $C$DW$324, DW_AT_TI_symbol_name("_res")
	.dwattr $C$DW$324, DW_AT_type(*$C$DW$T$47)
	.dwattr $C$DW$324, DW_AT_location[DW_OP_breg31 4]
	.dwpsn	file "test_c.cpp",line 358,column 8,is_stmt
;----------------------------------------------------------------------
; 358 | #define GPIO_CLR_DATA       (*(volatile uint32*)0x02b0001c) // GPIO Cle
;     | ar Data Register                                                       
;----------------------------------------------------------------------
           MVKL    .S1     0x2b00010,A3
           MVKH    .S1     0x2b00010,A3
           LDW     .D1T1   *A3,A3            ; |358| 
           NOP             4
           STW     .D2T1   A3,*+SP(4)        ; |358| 
	.dwpsn	file "test_c.cpp",line 359,column 1,is_stmt
;----------------------------------------------------------------------
; 359 | #define GPIO_IN_DATA        (*(volatile uint32*)0x02b00020) // GPIO Inp
;     | ut Data Register                                                       
;----------------------------------------------------------------------
           MVKL    .S2     0xffdf,B5
           MVKL    .S2     0x2b00010,B6

           MVKH    .S2     0xffdf,B5
||         MV      .L2X    A3,B4

           AND     .L2     B5,B4,B4          ; |359| 
||         MVKH    .S2     0x2b00010,B6

           STW     .D2T2   B4,*B6            ; |359| 
	.dwpsn	file "test_c.cpp",line 361,column 1,is_stmt
;----------------------------------------------------------------------
; 362 | void alp_sinhrosig_tst()                                               
;----------------------------------------------------------------------

           MVK     .S1     32,A3             ; |361| 
||         ADD     .L2     8,B6,B4

           STW     .D2T1   A3,*B4            ; |361| 
	.dwpsn	file "test_c.cpp",line 363,column 1,is_stmt
 nop 
	.dwpsn	file "test_c.cpp",line 364,column 1,is_stmt
;----------------------------------------------------------------------
; 364 | uint32 res = GPIO_DIR;                                                 
;----------------------------------------------------------------------
 nop 
	.dwpsn	file "test_c.cpp",line 365,column 1,is_stmt
;----------------------------------------------------------------------
; 365 | GPIO_DIR = res & 0xFFDF;                                               
;----------------------------------------------------------------------
 nop 
	.dwpsn	file "test_c.cpp",line 366,column 1,is_stmt
 nop 
	.dwpsn	file "test_c.cpp",line 367,column 1,is_stmt
;----------------------------------------------------------------------
; 367 | GPIO_SET_DATA = 0x20;                                                  
;----------------------------------------------------------------------
 nop 
	.dwpsn	file "test_c.cpp",line 368,column 1,is_stmt
 nop 
	.dwpsn	file "test_c.cpp",line 369,column 1,is_stmt
;----------------------------------------------------------------------
; 369 | asm ( " nop " );                                                       
;----------------------------------------------------------------------
 nop 
	.dwpsn	file "test_c.cpp",line 370,column 1,is_stmt
;----------------------------------------------------------------------
; 370 | asm ( " nop " );                                                       
;----------------------------------------------------------------------
 nop 
	.dwpsn	file "test_c.cpp",line 371,column 1,is_stmt
;----------------------------------------------------------------------
; 371 | asm ( " nop " );                                                       
;----------------------------------------------------------------------
 nop 
	.dwpsn	file "test_c.cpp",line 372,column 1,is_stmt
;----------------------------------------------------------------------
; 372 | asm ( " nop " );                                                       
;----------------------------------------------------------------------
 nop 
	.dwpsn	file "test_c.cpp",line 373,column 1,is_stmt
;----------------------------------------------------------------------
; 373 | asm ( " nop " );                                                       
;----------------------------------------------------------------------
           ADD     .L2     4,B4,B4
           STW     .D2T1   A3,*B4            ; |373| 
	.dwpsn	file "test_c.cpp",line 374,column 1,is_stmt
;----------------------------------------------------------------------
; 374 | asm ( " nop " );                                                       
;----------------------------------------------------------------------
           ADD     .L2     8,SP,SP           ; |374| 
	.dwcfi	cfa_offset, 0
	.dwcfi	cfa_offset, 0
$C$DW$325	.dwtag  DW_TAG_TI_branch
	.dwattr $C$DW$325, DW_AT_low_pc(0x00)
	.dwattr $C$DW$325, DW_AT_TI_return
           RETNOP  .S2     B3,5              ; |374| 
           ; BRANCH OCCURS {B3}              ; |374| 
	.dwattr $C$DW$323, DW_AT_TI_end_file("test_c.cpp")
	.dwattr $C$DW$323, DW_AT_TI_end_line(0x176)
	.dwattr $C$DW$323, DW_AT_TI_end_column(0x01)
	.dwendentry
	.dwendtag $C$DW$323

	.sect	".text"
	.clink
	.global	_TestMove_ST1__FP12kdg_rez_test

$C$DW$326	.dwtag  DW_TAG_subprogram, DW_AT_name("TestMove_ST1")
	.dwattr $C$DW$326, DW_AT_low_pc(_TestMove_ST1__FP12kdg_rez_test)
	.dwattr $C$DW$326, DW_AT_high_pc(0x00)
	.dwattr $C$DW$326, DW_AT_TI_symbol_name("_TestMove_ST1__FP12kdg_rez_test")
	.dwattr $C$DW$326, DW_AT_external
	.dwattr $C$DW$326, DW_AT_type(*$C$DW$T$47)
	.dwattr $C$DW$326, DW_AT_TI_begin_file("test_c.cpp")
	.dwattr $C$DW$326, DW_AT_TI_begin_line(0x17e)
	.dwattr $C$DW$326, DW_AT_TI_begin_column(0x08)
	.dwpsn	file "test_c.cpp",line 383,column 1,is_stmt,address _TestMove_ST1__FP12kdg_rez_test

	.dwfde $C$DW$CIE, _TestMove_ST1__FP12kdg_rez_test
$C$DW$327	.dwtag  DW_TAG_formal_parameter, DW_AT_name("result")
	.dwattr $C$DW$327, DW_AT_TI_symbol_name("_result")
	.dwattr $C$DW$327, DW_AT_type(*$C$DW$T$696)
	.dwattr $C$DW$327, DW_AT_location[DW_OP_reg4]

;******************************************************************************
;* FUNCTION NAME: TestMove_ST1(kdg_rez_test *)                                *
;*                                                                            *
;*   Regs Modified     : A0,A1,A2,A3,A4,A5,A6,A7,A8,A9,B0,B1,B2,B3,B4,B5,B6,  *
;*                           B7,B8,B9,SP,A16,A17,A18,A19,A20,A21,A22,A23,A24, *
;*                           A25,A26,A27,A28,A29,A30,A31,B16,B17,B18,B19,B20, *
;*                           B21,B22,B23,B24,B25,B26,B27,B28,B29,B30,B31      *
;*   Regs Used         : A0,A1,A2,A3,A4,A5,A6,A7,A8,A9,B0,B1,B2,B3,B4,B5,B6,  *
;*                           B7,B8,B9,SP,A16,A17,A18,A19,A20,A21,A22,A23,A24, *
;*                           A25,A26,A27,A28,A29,A30,A31,B16,B17,B18,B19,B20, *
;*                           B21,B22,B23,B24,B25,B26,B27,B28,B29,B30,B31      *
;*   Local Frame Size  : 0 Args + 3604 Auto + 4 Save = 3608 byte              *
;******************************************************************************
_TestMove_ST1__FP12kdg_rez_test:
;** --------------------------------------------------------------------------*
	.dwcfi	cfa_offset, 0
	.dwcfi	save_reg_to_reg, 228, 19
           ADDK    .S2     -3608,SP          ; |383| 
	.dwcfi	cfa_offset, 3608
           STW     .D2T2   B3,*+SP(3608)     ; |383| 
	.dwcfi	save_reg_to_mem, 19, 0
$C$DW$328	.dwtag  DW_TAG_variable, DW_AT_name("result")
	.dwattr $C$DW$328, DW_AT_TI_symbol_name("_result")
	.dwattr $C$DW$328, DW_AT_type(*$C$DW$T$696)
	.dwattr $C$DW$328, DW_AT_location[DW_OP_breg31 4]
$C$DW$329	.dwtag  DW_TAG_variable, DW_AT_name("start_adr")
	.dwattr $C$DW$329, DW_AT_TI_symbol_name("_start_adr")
	.dwattr $C$DW$329, DW_AT_type(*$C$DW$T$47)
	.dwattr $C$DW$329, DW_AT_location[DW_OP_breg31 8]
$C$DW$330	.dwtag  DW_TAG_variable, DW_AT_name("sh_d")
	.dwattr $C$DW$330, DW_AT_TI_symbol_name("_sh_d")
	.dwattr $C$DW$330, DW_AT_type(*$C$DW$T$47)
	.dwattr $C$DW$330, DW_AT_location[DW_OP_breg31 12]
$C$DW$331	.dwtag  DW_TAG_variable, DW_AT_name("buf")
	.dwattr $C$DW$331, DW_AT_TI_symbol_name("_buf")
	.dwattr $C$DW$331, DW_AT_type(*$C$DW$T$740)
	.dwattr $C$DW$331, DW_AT_location[DW_OP_breg31 16]
$C$DW$332	.dwtag  DW_TAG_variable, DW_AT_name("one")
	.dwattr $C$DW$332, DW_AT_TI_symbol_name("_one")
	.dwattr $C$DW$332, DW_AT_type(*$C$DW$T$47)
	.dwattr $C$DW$332, DW_AT_location[DW_OP_breg31 3600]
           STW     .D2T1   A4,*+SP(4)        ; |383| 
	.dwpsn	file "test_c.cpp",line 387,column 8,is_stmt
;----------------------------------------------------------------------
; 387 | //---------------------------------------------------------------------
;     | -------                                                                
; 388 | uint32 TestMove_ST1(kdg_rez_test* result)                              
;----------------------------------------------------------------------
           ZERO    .L2     B4                ; |387| 
           STW     .D2T2   B4,*+SP(8)        ; |387| 
	.dwpsn	file "test_c.cpp",line 389,column 8,is_stmt
;----------------------------------------------------------------------
; 390 | #ifdef TPO_M711B                                                       
; 391 | uint32 start_adr = 0x100;                                              
; 392 | #else                                                                  
; 393 | uint32 start_adr = 0;                                                  
; 394 | #endif                                                                 
;----------------------------------------------------------------------
           MVK     .L1     4,A3              ; |389| 
           STW     .D2T1   A3,*+SP(12)       ; |389| 
	.dwpsn	file "test_c.cpp",line 395,column 8,is_stmt
;----------------------------------------------------------------------
; 395 | uint32 sh_d = SH_DOZU/8;                                               
; 397 | #ifdef TPO5                                                            
; 398 | uint32 buf[LEN_BUF_FOR_TEST_DOZU];                                     
; 399 | #define DAT555  0x55555555                                             
; 400 | #define DATAAA  0xAAAAAAAA                                             
; 401 | uint32 one = 1;                                                        
; 402 | #else                                                                  
;----------------------------------------------------------------------
           MVK     .L1     1,A3              ; |395| 
           STW     .D2T1   A3,*+SP(3600)     ; |395| 
	.dwpsn	file "test_c.cpp",line 403,column 1,is_stmt
;----------------------------------------------------------------------
; 403 | uint64 buf[LEN_BUF_FOR_TEST_DOZU+5];                                   
; 404 | #define DAT555  0x5555555555555555                                     
;----------------------------------------------------------------------
$C$DW$333	.dwtag  DW_TAG_TI_branch
	.dwattr $C$DW$333, DW_AT_low_pc(0x00)
	.dwattr $C$DW$333, DW_AT_name("_ReadDARAM_CRYPT0__FUsPvT1")
	.dwattr $C$DW$333, DW_AT_TI_call
           CALL    .S1     _ReadDARAM_CRYPT0__FUsPvT1 ; |403| 
           LDHU    .D2T1   *+SP(8),A4        ; |403| 
           ADDKPC  .S2     $C$RL14,B3,2      ; |403| 

           ADD     .D2     SP,16,B4          ; |403| 
||         MVK     .S1     0xe00,A6          ; |403| 

$C$RL14:   ; CALL OCCURS {_ReadDARAM_CRYPT0__FUsPvT1} {0}  ; |403| 

$C$DW$334	.dwtag  DW_TAG_lexical_block, DW_AT_low_pc(0x00), DW_AT_high_pc(0x00)
$C$DW$335	.dwtag  DW_TAG_variable, DW_AT_name("i")
	.dwattr $C$DW$335, DW_AT_TI_symbol_name("_i")
	.dwattr $C$DW$335, DW_AT_type(*$C$DW$T$10)
	.dwattr $C$DW$335, DW_AT_location[DW_OP_breg31 3604]
	.dwpsn	file "test_c.cpp",line 405,column 11,is_stmt
;----------------------------------------------------------------------
; 405 | #define DATAAA  0xAAAAAAAAAAAAAAAA                                     
;----------------------------------------------------------------------
           ZERO    .L2     B4                ; |405| 
           STW     .D2T2   B4,*+SP(3604)     ; |405| 
	.dwpsn	file "test_c.cpp",line 405,column 18,is_stmt
;----------------------------------------------------------------------
; 406 | uint64 one = 1;                                                        
;----------------------------------------------------------------------
           MVK     .S2     32,B5             ; |405| 
           CMPLT   .L2     B4,B5,B0          ; |405| 
   [!B0]   BNOP    .S1     $C$L28,5          ; |405| 
           ; BRANCHCC OCCURS {$C$L28}        ; |405| 
;*----------------------------------------------------------------------------*
;*   SOFTWARE PIPELINE INFORMATION
;*      Disqualified loop: Software pipelining disabled
;*----------------------------------------------------------------------------*
$C$L26:    
$C$DW$L$_TestMove_ST1__FP12kdg_rez_test$2$B:
	.dwpsn	file "test_c.cpp",line 407,column 4,is_stmt
;----------------------------------------------------------------------
; 407 | #endif                                                                 
;----------------------------------------------------------------------

           MV      .L2     B4,B6
||         ADDAW   .D2     SP,B4,B4          ; |407| 

           LDW     .D2T2   *+SP(3600),B5     ; |407| 
           LDW     .D2T2   *+B4(16),B4       ; |407| 
           NOP             3
           SHL     .S2     B5,B6,B5          ; |407| 
           CMPEQ   .L2     B4,B5,B0          ; |407| 
   [ B0]   BNOP    .S1     $C$L27,5          ; |407| 
           ; BRANCHCC OCCURS {$C$L27}        ; |407| 
$C$DW$L$_TestMove_ST1__FP12kdg_rez_test$2$E:
;** --------------------------------------------------------------------------*
	.dwpsn	file "test_c.cpp",line 409,column 4,is_stmt
;----------------------------------------------------------------------
; 409 | ReadDARAM_CRYPT0(start_adr, buf, LEN_DUZU_FOR_TEST);                   
;----------------------------------------------------------------------

           MV      .L2     B6,B4
||         ADDAW   .D2     SP,B6,B6          ; |409| 

           LDW     .D2T2   *+SP(3600),B5     ; |409| 
           LDW     .D2T2   *+B6(16),B7       ; |409| 
           LDW     .D2T2   *+SP(4),B31       ; |409| 
           NOP             2
           SHL     .S2     B5,B4,B4          ; |409| 
           XOR     .L2     B4,B7,B4          ; |409| 
           STW     .D2T2   B4,*+B31(16)      ; |409| 
	.dwpsn	file "test_c.cpp",line 410,column 4,is_stmt
           LDW     .D2T2   *+SP(12),B4       ; |410| 
           LDW     .D2T2   *+SP(3604),B7     ; |410| 
           LDW     .D2T2   *+SP(8),B5        ; |410| 
           LDW     .D2T2   *+SP(4),B6        ; |410| 
           NOP             2
           MPYLH   .M2     B4,B7,B9          ; |410| 
           MPYLH   .M2     B7,B4,B8          ; |410| 
           MPYU    .M2     B4,B7,B7          ; |410| 
           ADD     .L2     B9,B8,B4          ; |410| 
           SHL     .S2     B4,16,B4          ; |410| 
           ADD     .L2     B7,B4,B4          ; |410| 
           ADD     .L2     B5,B4,B4          ; |410| 
           STW     .D2T2   B4,*+B6(12)       ; |410| 
	.dwpsn	file "test_c.cpp",line 411,column 4,is_stmt
;----------------------------------------------------------------------
; 411 | for(int i = 0; i < SH_DOZU; i++)                                       
; 413 |         if(buf[i] != one << i)                                         
;----------------------------------------------------------------------
           BNOP    .S1     $C$L33,4          ; |411| 
           MVK     .L1     0x1,A4            ; |411| 
           ; BRANCH OCCURS {$C$L33}          ; |411| 
;** --------------------------------------------------------------------------*
$C$L27:    
$C$DW$L$_TestMove_ST1__FP12kdg_rez_test$4$B:
	.dwpsn	file "test_c.cpp",line 405,column 31,is_stmt
           ADD     .L2     1,B6,B4           ; |405| 
           STW     .D2T2   B4,*+SP(3604)     ; |405| 
	.dwpsn	file "test_c.cpp",line 405,column 18,is_stmt
           MVK     .S2     32,B5             ; |405| 
           CMPLT   .L2     B4,B5,B0          ; |405| 
   [ B0]   BNOP    .S1     $C$L26,5          ; |405| 
           ; BRANCHCC OCCURS {$C$L26}        ; |405| 
$C$DW$L$_TestMove_ST1__FP12kdg_rez_test$4$E:
;** --------------------------------------------------------------------------*
$C$L28:    
	.dwendtag $C$DW$334


$C$DW$336	.dwtag  DW_TAG_lexical_block, DW_AT_low_pc(0x00), DW_AT_high_pc(0x00)
$C$DW$337	.dwtag  DW_TAG_variable, DW_AT_name("i")
	.dwattr $C$DW$337, DW_AT_TI_symbol_name("_i")
	.dwattr $C$DW$337, DW_AT_type(*$C$DW$T$10)
	.dwattr $C$DW$337, DW_AT_location[DW_OP_breg31 3604]
	.dwpsn	file "test_c.cpp",line 415,column 11,is_stmt
;----------------------------------------------------------------------
; 415 | result->data = buf[i] ^ (one << i);                                    
;----------------------------------------------------------------------
           MVK     .S1     32,A3             ; |415| 
           STW     .D2T1   A3,*+SP(3604)     ; |415| 
	.dwpsn	file "test_c.cpp",line 415,column 24,is_stmt
;----------------------------------------------------------------------
; 416 | result->adrr = (i * sh_d) + start_adr;                                 
;----------------------------------------------------------------------

           MV      .L2     B5,B4
||         MVK     .S2     896,B5            ; |415| 

           CMPLT   .L2     B4,B5,B0          ; |415| 
   [!B0]   BNOP    .S1     $C$L32,5          ; |415| 
           ; BRANCHCC OCCURS {$C$L32}        ; |415| 
;*----------------------------------------------------------------------------*
;*   SOFTWARE PIPELINE INFORMATION
;*      Disqualified loop: Software pipelining disabled
;*----------------------------------------------------------------------------*
$C$L29:    
$C$DW$L$_TestMove_ST1__FP12kdg_rez_test$6$B:
	.dwpsn	file "test_c.cpp",line 417,column 4,is_stmt
;----------------------------------------------------------------------
; 417 | return TPO_ERR;                                                        
;----------------------------------------------------------------------
           ADDAW   .D2     SP,B4,B4          ; |417| 
           LDW     .D2T2   *+B4(16),B4       ; |417| 
           MVKL    .S2     0x55555555,B5
           MVKH    .S2     0x55555555,B5
           NOP             2
           CMPEQ   .L2     B4,B5,B0          ; |417| 
   [ B0]   BNOP    .S1     $C$L30,5          ; |417| 
           ; BRANCHCC OCCURS {$C$L30}        ; |417| 
$C$DW$L$_TestMove_ST1__FP12kdg_rez_test$6$E:
;** --------------------------------------------------------------------------*
	.dwpsn	file "test_c.cpp",line 419,column 4,is_stmt
           LDW     .D2T2   *+SP(3604),B4     ; |419| 
           LDW     .D2T2   *+SP(4),B31       ; |419| 
           NOP             3
           ADDAW   .D2     SP,B4,B4          ; |419| 
           LDW     .D2T2   *+B4(16),B6       ; |419| 
           NOP             4
           XOR     .L2     B5,B6,B5          ; |419| 
           STW     .D2T2   B5,*+B31(16)      ; |419| 
	.dwpsn	file "test_c.cpp",line 420,column 4,is_stmt
           LDW     .D2T2   *+SP(3604),B4     ; |420| 
           LDW     .D2T2   *+SP(12),B6       ; |420| 
           LDW     .D2T2   *+SP(8),B7        ; |420| 
           LDW     .D2T2   *+SP(4),B5        ; |420| 
           NOP             2
           MPYLH   .M2     B6,B4,B9          ; |420| 
           MPYLH   .M2     B4,B6,B8          ; |420| 
           MPYU    .M2     B6,B4,B6          ; |420| 
           ADD     .L2     B9,B8,B4          ; |420| 
           SHL     .S2     B4,16,B4          ; |420| 
           ADD     .L2     B6,B4,B4          ; |420| 
           ADD     .L2     B7,B4,B4          ; |420| 
           STW     .D2T2   B4,*+B5(12)       ; |420| 
	.dwpsn	file "test_c.cpp",line 421,column 4,is_stmt
;----------------------------------------------------------------------
; 421 | for(int i = SH_DOZU; i < LEN_BUF_FOR_TEST_DOZU; i+=2)                  
; 423 |         if(buf[i] != DAT555)                                           
;----------------------------------------------------------------------
           BNOP    .S1     $C$L33,4          ; |421| 
           MVK     .L1     0x1,A4            ; |421| 
           ; BRANCH OCCURS {$C$L33}          ; |421| 
;** --------------------------------------------------------------------------*
$C$L30:    
$C$DW$L$_TestMove_ST1__FP12kdg_rez_test$8$B:
	.dwpsn	file "test_c.cpp",line 424,column 4,is_stmt
;----------------------------------------------------------------------
; 425 | result->data = buf[i] ^ DAT555;                                        
;----------------------------------------------------------------------
           LDW     .D2T2   *+SP(3604),B4     ; |424| 
           MVKL    .S2     0xaaaaaaaa,B5
           MVKH    .S2     0xaaaaaaaa,B5
           NOP             2
           ADD     .L2     1,B4,B4           ; |424| 
           ADDAW   .D2     SP,B4,B4          ; |424| 
           LDW     .D2T2   *+B4(16),B4       ; |424| 
           NOP             4
           CMPEQ   .L2     B4,B5,B0          ; |424| 
   [ B0]   BNOP    .S1     $C$L31,5          ; |424| 
           ; BRANCHCC OCCURS {$C$L31}        ; |424| 
$C$DW$L$_TestMove_ST1__FP12kdg_rez_test$8$E:
;** --------------------------------------------------------------------------*
	.dwpsn	file "test_c.cpp",line 426,column 4,is_stmt
;----------------------------------------------------------------------
; 426 | result->adrr = (i * sh_d) + start_adr;                                 
;----------------------------------------------------------------------
           LDW     .D2T2   *+SP(3604),B4     ; |426| 
           LDW     .D2T2   *+SP(4),B5        ; |426| 
           MVKL    .S2     0xaaaaaaaa,B6
           MVKH    .S2     0xaaaaaaaa,B6
           NOP             1
           ADD     .L2     1,B4,B4           ; |426| 
           ADDAW   .D2     SP,B4,B4          ; |426| 
           LDW     .D2T2   *+B4(16),B4       ; |426| 
           NOP             4
           XOR     .L2     B6,B4,B4          ; |426| 
           STW     .D2T2   B4,*+B5(16)       ; |426| 
	.dwpsn	file "test_c.cpp",line 427,column 4,is_stmt
;----------------------------------------------------------------------
; 427 | return TPO_ERR;                                                        
;----------------------------------------------------------------------
           LDW     .D2T2   *+SP(3604),B5     ; |427| 
           LDW     .D2T2   *+SP(12),B4       ; |427| 
           LDW     .D2T2   *+SP(8),B31       ; |427| 
           LDW     .D2T2   *+SP(4),B6        ; |427| 
           NOP             1
           ADD     .L2     1,B5,B7           ; |427| 
           MPYLH   .M2     B7,B4,B8          ; |427| 
           MPYLH   .M2     B4,B7,B9          ; |427| 
           MPYU    .M2     B4,B7,B7          ; |427| 
           ADD     .L2     B9,B8,B4          ; |427| 
           SHL     .S2     B4,16,B4          ; |427| 
           ADD     .L2     B7,B4,B4          ; |427| 
           ADD     .L2     B31,B4,B4         ; |427| 
           STW     .D2T2   B4,*+B6(12)       ; |427| 
	.dwpsn	file "test_c.cpp",line 428,column 4,is_stmt
;----------------------------------------------------------------------
; 430 | if(buf[i+1] != DATAAA)                                                 
; 432 | result->data = buf[i+1] ^ DATAAA;                                      
;----------------------------------------------------------------------
           BNOP    .S1     $C$L33,4          ; |428| 
           MVK     .L1     0x1,A4            ; |428| 
           ; BRANCH OCCURS {$C$L33}          ; |428| 
;** --------------------------------------------------------------------------*
$C$L31:    
$C$DW$L$_TestMove_ST1__FP12kdg_rez_test$10$B:
	.dwpsn	file "test_c.cpp",line 415,column 51,is_stmt
           LDW     .D2T2   *+SP(3604),B4     ; |415| 
           NOP             4
           ADD     .L2     2,B4,B4           ; |415| 
           STW     .D2T2   B4,*+SP(3604)     ; |415| 
	.dwpsn	file "test_c.cpp",line 415,column 24,is_stmt
           MVK     .S2     896,B5            ; |415| 
           CMPLT   .L2     B4,B5,B0          ; |415| 
   [ B0]   BNOP    .S1     $C$L29,5          ; |415| 
           ; BRANCHCC OCCURS {$C$L29}        ; |415| 
$C$DW$L$_TestMove_ST1__FP12kdg_rez_test$10$E:
;** --------------------------------------------------------------------------*
$C$L32:    
	.dwendtag $C$DW$336

	.dwpsn	file "test_c.cpp",line 433,column 1,is_stmt
;----------------------------------------------------------------------
; 433 | result->adrr = ((i+1) * sh_d) + start_adr;                             
;----------------------------------------------------------------------
           ZERO    .L1     A4                ; |433| 
;** --------------------------------------------------------------------------*
$C$L33:    
	.dwpsn	file "test_c.cpp",line 434,column 1,is_stmt
;----------------------------------------------------------------------
; 434 | return TPO_ERR;                                                        
;----------------------------------------------------------------------
           LDW     .D2T2   *+SP(3608),B3     ; |434| 
           NOP             4
	.dwcfi	restore_reg, 19
           ADDK    .S2     3608,SP           ; |434| 
	.dwcfi	cfa_offset, 0
	.dwcfi	cfa_offset, 0
$C$DW$338	.dwtag  DW_TAG_TI_branch
	.dwattr $C$DW$338, DW_AT_low_pc(0x00)
	.dwattr $C$DW$338, DW_AT_TI_return
           RETNOP  .S2     B3,5              ; |434| 
           ; BRANCH OCCURS {B3}              ; |434| 

$C$DW$339	.dwtag  DW_TAG_TI_loop
	.dwattr $C$DW$339, DW_AT_name("C:\1901VC1T_Inteltech\3rdPartyLIB\dsp_core\C6000\tpo_amoeba\source\test_c.asm:$C$L29:1:1517815039")
	.dwattr $C$DW$339, DW_AT_TI_begin_file("test_c.cpp")
	.dwattr $C$DW$339, DW_AT_TI_begin_line(0x19f)
	.dwattr $C$DW$339, DW_AT_TI_end_line(0x1ae)
$C$DW$340	.dwtag  DW_TAG_TI_loop_range
	.dwattr $C$DW$340, DW_AT_low_pc($C$DW$L$_TestMove_ST1__FP12kdg_rez_test$6$B)
	.dwattr $C$DW$340, DW_AT_high_pc($C$DW$L$_TestMove_ST1__FP12kdg_rez_test$6$E)
$C$DW$341	.dwtag  DW_TAG_TI_loop_range
	.dwattr $C$DW$341, DW_AT_low_pc($C$DW$L$_TestMove_ST1__FP12kdg_rez_test$8$B)
	.dwattr $C$DW$341, DW_AT_high_pc($C$DW$L$_TestMove_ST1__FP12kdg_rez_test$8$E)
$C$DW$342	.dwtag  DW_TAG_TI_loop_range
	.dwattr $C$DW$342, DW_AT_low_pc($C$DW$L$_TestMove_ST1__FP12kdg_rez_test$10$B)
	.dwattr $C$DW$342, DW_AT_high_pc($C$DW$L$_TestMove_ST1__FP12kdg_rez_test$10$E)
	.dwendtag $C$DW$339


$C$DW$343	.dwtag  DW_TAG_TI_loop
	.dwattr $C$DW$343, DW_AT_name("C:\1901VC1T_Inteltech\3rdPartyLIB\dsp_core\C6000\tpo_amoeba\source\test_c.asm:$C$L26:1:1517815039")
	.dwattr $C$DW$343, DW_AT_TI_begin_file("test_c.cpp")
	.dwattr $C$DW$343, DW_AT_TI_begin_line(0x195)
	.dwattr $C$DW$343, DW_AT_TI_end_line(0x19d)
$C$DW$344	.dwtag  DW_TAG_TI_loop_range
	.dwattr $C$DW$344, DW_AT_low_pc($C$DW$L$_TestMove_ST1__FP12kdg_rez_test$2$B)
	.dwattr $C$DW$344, DW_AT_high_pc($C$DW$L$_TestMove_ST1__FP12kdg_rez_test$2$E)
$C$DW$345	.dwtag  DW_TAG_TI_loop_range
	.dwattr $C$DW$345, DW_AT_low_pc($C$DW$L$_TestMove_ST1__FP12kdg_rez_test$4$B)
	.dwattr $C$DW$345, DW_AT_high_pc($C$DW$L$_TestMove_ST1__FP12kdg_rez_test$4$E)
	.dwendtag $C$DW$343

	.dwattr $C$DW$326, DW_AT_TI_end_file("test_c.cpp")
	.dwattr $C$DW$326, DW_AT_TI_end_line(0x1b2)
	.dwattr $C$DW$326, DW_AT_TI_end_column(0x01)
	.dwendentry
	.dwendtag $C$DW$326

	.sect	".text"
	.clink
	.global	_Send_Recive_Packet__FUiPvT2T1

$C$DW$346	.dwtag  DW_TAG_subprogram, DW_AT_name("Send_Recive_Packet")
	.dwattr $C$DW$346, DW_AT_low_pc(_Send_Recive_Packet__FUiPvT2T1)
	.dwattr $C$DW$346, DW_AT_high_pc(0x00)
	.dwattr $C$DW$346, DW_AT_TI_symbol_name("_Send_Recive_Packet__FUiPvT2T1")
	.dwattr $C$DW$346, DW_AT_external
	.dwattr $C$DW$346, DW_AT_type(*$C$DW$T$47)
	.dwattr $C$DW$346, DW_AT_TI_begin_file("test_c.cpp")
	.dwattr $C$DW$346, DW_AT_TI_begin_line(0x1dc)
	.dwattr $C$DW$346, DW_AT_TI_begin_column(0x08)
	.dwpsn	file "test_c.cpp",line 477,column 1,is_stmt,address _Send_Recive_Packet__FUiPvT2T1

	.dwfde $C$DW$CIE, _Send_Recive_Packet__FUiPvT2T1
$C$DW$347	.dwtag  DW_TAG_formal_parameter, DW_AT_name("FileNet")
	.dwattr $C$DW$347, DW_AT_TI_symbol_name("_FileNet")
	.dwattr $C$DW$347, DW_AT_type(*$C$DW$T$47)
	.dwattr $C$DW$347, DW_AT_location[DW_OP_reg4]
$C$DW$348	.dwtag  DW_TAG_formal_parameter, DW_AT_name("Pack_wr")
	.dwattr $C$DW$348, DW_AT_TI_symbol_name("_Pack_wr")
	.dwattr $C$DW$348, DW_AT_type(*$C$DW$T$3)
	.dwattr $C$DW$348, DW_AT_location[DW_OP_reg20]
$C$DW$349	.dwtag  DW_TAG_formal_parameter, DW_AT_name("Pack_rd")
	.dwattr $C$DW$349, DW_AT_TI_symbol_name("_Pack_rd")
	.dwattr $C$DW$349, DW_AT_type(*$C$DW$T$3)
	.dwattr $C$DW$349, DW_AT_location[DW_OP_reg6]
$C$DW$350	.dwtag  DW_TAG_formal_parameter, DW_AT_name("len")
	.dwattr $C$DW$350, DW_AT_TI_symbol_name("_len")
	.dwattr $C$DW$350, DW_AT_type(*$C$DW$T$47)
	.dwattr $C$DW$350, DW_AT_location[DW_OP_reg22]

;******************************************************************************
;* FUNCTION NAME: Send_Recive_Packet(unsigned int, void *, void *, unsigned int)*
;*                                                                            *
;*   Regs Modified     : A0,A1,A2,A3,A4,A5,A6,A7,A8,A9,B0,B1,B2,B3,B4,B5,B6,  *
;*                           B7,B8,B9,SP,A16,A17,A18,A19,A20,A21,A22,A23,A24, *
;*                           A25,A26,A27,A28,A29,A30,A31,B16,B17,B18,B19,B20, *
;*                           B21,B22,B23,B24,B25,B26,B27,B28,B29,B30,B31      *
;*   Regs Used         : A0,A1,A2,A3,A4,A5,A6,A7,A8,A9,B0,B1,B2,B3,B4,B5,B6,  *
;*                           B7,B8,B9,SP,A16,A17,A18,A19,A20,A21,A22,A23,A24, *
;*                           A25,A26,A27,A28,A29,A30,A31,B16,B17,B18,B19,B20, *
;*                           B21,B22,B23,B24,B25,B26,B27,B28,B29,B30,B31      *
;*   Local Frame Size  : 0 Args + 28 Auto + 4 Save = 32 byte                  *
;******************************************************************************
_Send_Recive_Packet__FUiPvT2T1:
;** --------------------------------------------------------------------------*
	.dwcfi	cfa_offset, 0
	.dwcfi	save_reg_to_reg, 228, 19
           STW     .D2T2   B3,*SP--(32)      ; |477| 
	.dwcfi	cfa_offset, 32
	.dwcfi	save_reg_to_mem, 19, 0
$C$DW$351	.dwtag  DW_TAG_variable, DW_AT_name("FileNet")
	.dwattr $C$DW$351, DW_AT_TI_symbol_name("_FileNet")
	.dwattr $C$DW$351, DW_AT_type(*$C$DW$T$47)
	.dwattr $C$DW$351, DW_AT_location[DW_OP_breg31 4]
$C$DW$352	.dwtag  DW_TAG_variable, DW_AT_name("Pack_wr")
	.dwattr $C$DW$352, DW_AT_TI_symbol_name("_Pack_wr")
	.dwattr $C$DW$352, DW_AT_type(*$C$DW$T$3)
	.dwattr $C$DW$352, DW_AT_location[DW_OP_breg31 8]
$C$DW$353	.dwtag  DW_TAG_variable, DW_AT_name("Pack_rd")
	.dwattr $C$DW$353, DW_AT_TI_symbol_name("_Pack_rd")
	.dwattr $C$DW$353, DW_AT_type(*$C$DW$T$3)
	.dwattr $C$DW$353, DW_AT_location[DW_OP_breg31 12]
$C$DW$354	.dwtag  DW_TAG_variable, DW_AT_name("len")
	.dwattr $C$DW$354, DW_AT_TI_symbol_name("_len")
	.dwattr $C$DW$354, DW_AT_type(*$C$DW$T$47)
	.dwattr $C$DW$354, DW_AT_location[DW_OP_breg31 16]
$C$DW$355	.dwtag  DW_TAG_variable, DW_AT_name("p_txd")
	.dwattr $C$DW$355, DW_AT_TI_symbol_name("_p_txd")
	.dwattr $C$DW$355, DW_AT_type(*$C$DW$T$570)
	.dwattr $C$DW$355, DW_AT_location[DW_OP_breg31 20]
$C$DW$356	.dwtag  DW_TAG_variable, DW_AT_name("p_rxd")
	.dwattr $C$DW$356, DW_AT_TI_symbol_name("_p_rxd")
	.dwattr $C$DW$356, DW_AT_type(*$C$DW$T$570)
	.dwattr $C$DW$356, DW_AT_location[DW_OP_breg31 24]
$C$DW$357	.dwtag  DW_TAG_variable, DW_AT_name("tim")
	.dwattr $C$DW$357, DW_AT_TI_symbol_name("_tim")
	.dwattr $C$DW$357, DW_AT_type(*$C$DW$T$47)
	.dwattr $C$DW$357, DW_AT_location[DW_OP_breg31 28]
;----------------------------------------------------------------------
; 478 | return 0;                                                              
; 480 | */                                                                     
; 483 | uint32 Send_Recive_Packet(uint32 FileNet, void* Pack_wr, void* Pack_rd,
;     |  uint32 len)                                                           
;----------------------------------------------------------------------
           STW     .D2T2   B6,*+SP(16)       ; |477| 
           STW     .D2T1   A6,*+SP(12)       ; |477| 
           STW     .D2T2   B4,*+SP(8)        ; |477| 
           STW     .D2T1   A4,*+SP(4)        ; |477| 
	.dwpsn	file "test_c.cpp",line 486,column 17,is_stmt
           ZERO    .L2     B4                ; |486| 
           STW     .D2T2   B4,*+SP(20)       ; |486| 
	.dwpsn	file "test_c.cpp",line 487,column 17,is_stmt
           STW     .D2T2   B4,*+SP(24)       ; |487| 
	.dwpsn	file "test_c.cpp",line 489,column 8,is_stmt
           ZERO    .L1     A3                ; |489| 
           MVKH    .S1     0x500000,A3       ; |489| 
           STW     .D2T1   A3,*+SP(28)       ; |489| 
;*----------------------------------------------------------------------------*
;*   SOFTWARE PIPELINE INFORMATION
;*      Disqualified loop: Software pipelining disabled
;*----------------------------------------------------------------------------*
$C$L34:    
$C$DW$L$_Send_Recive_Packet__FUiPvT2T1$2$B:
	.dwpsn	file "test_c.cpp",line 492,column 3,is_stmt
           MVKL    .S1     ___syscall_tab+284,A3
           MVKH    .S1     ___syscall_tab+284,A3
           LDW     .D1T1   *A3,A3            ; |492| 
           LDW     .D2T1   *+SP(4),A4        ; |492| 
           ADD     .D2     SP,24,B5          ; |492| 
           MVK     .S2     0x1100,B4         ; |492| 
           MV      .L1X    B5,A6             ; |492| 
$C$DW$358	.dwtag  DW_TAG_TI_branch
	.dwattr $C$DW$358, DW_AT_low_pc(0x00)
	.dwattr $C$DW$358, DW_AT_TI_call
	.dwattr $C$DW$358, DW_AT_TI_indirect
           CALL    .S2X    A3                ; |492| 
           ADDKPC  .S2     $C$RL15,B3,4      ; |492| 
$C$RL15:   ; CALL OCCURS {A3} {0}            ; |492| 
           MV      .L1     A4,A0             ; |492| 
   [!A0]   BNOP    .S1     $C$L35,5          ; |492| 
           ; BRANCHCC OCCURS {$C$L35}        ; |492| 
$C$DW$L$_Send_Recive_Packet__FUiPvT2T1$2$E:
;** --------------------------------------------------------------------------*
	.dwpsn	file "test_c.cpp",line 493,column 4,is_stmt
;----------------------------------------------------------------------
; 493 | net_descriptor* p_txd = NULL;                                          
;----------------------------------------------------------------------
           BNOP    .S1     $C$L45,4          ; |493| 
           MVK     .L1     0x1,A4            ; |493| 
           ; BRANCH OCCURS {$C$L45}          ; |493| 
;** --------------------------------------------------------------------------*
$C$L35:    
$C$DW$L$_Send_Recive_Packet__FUiPvT2T1$4$B:
	.dwpsn	file "test_c.cpp",line 494,column 5,is_stmt
;----------------------------------------------------------------------
; 494 | net_descriptor* p_rxd = NULL;                                          
;----------------------------------------------------------------------
           LDW     .D2T2   *+SP(24),B0       ; |494| 
           NOP             4
   [!B0]   BNOP    .S1     $C$L36,5          ; |494| 
           ; BRANCHCC OCCURS {$C$L36}        ; |494| 
$C$DW$L$_Send_Recive_Packet__FUiPvT2T1$4$E:
;** --------------------------------------------------------------------------*
$C$DW$L$_Send_Recive_Packet__FUiPvT2T1$5$B:
	.dwpsn	file "test_c.cpp",line 495,column 4,is_stmt
           MVKL    .S1     ___syscall_tab+284,A3
           MVKH    .S1     ___syscall_tab+284,A3
           LDW     .D1T1   *A3,A3            ; |495| 
           LDW     .D2T1   *+SP(4),A4        ; |495| 
           ADD     .D2     SP,24,B5          ; |495| 
           MVK     .S2     0x1101,B4         ; |495| 
           MV      .L1X    B5,A6             ; |495| 
$C$DW$359	.dwtag  DW_TAG_TI_branch
	.dwattr $C$DW$359, DW_AT_low_pc(0x00)
	.dwattr $C$DW$359, DW_AT_TI_call
	.dwattr $C$DW$359, DW_AT_TI_indirect
           CALL    .S2X    A3                ; |495| 
           ADDKPC  .S2     $C$RL16,B3,4      ; |495| 
$C$RL16:   ; CALL OCCURS {A3} {0}            ; |495| 
           MV      .L1     A4,A0             ; |495| 
   [!A0]   BNOP    .S1     $C$L36,5          ; |495| 
           ; BRANCHCC OCCURS {$C$L36}        ; |495| 
$C$DW$L$_Send_Recive_Packet__FUiPvT2T1$5$E:
;** --------------------------------------------------------------------------*
	.dwpsn	file "test_c.cpp",line 496,column 5,is_stmt
;----------------------------------------------------------------------
; 496 | uint32 tim = 0x500000;                                                 
;----------------------------------------------------------------------
           BNOP    .S1     $C$L45,4          ; |496| 
           MVK     .L1     0x1,A4            ; |496| 
           ; BRANCH OCCURS {$C$L45}          ; |496| 
;** --------------------------------------------------------------------------*
$C$L36:    
$C$DW$L$_Send_Recive_Packet__FUiPvT2T1$7$B:
	.dwpsn	file "test_c.cpp",line 497,column 9,is_stmt
;----------------------------------------------------------------------
; 497 | do//                                                      
; 499 |         if( drv_ioctl( FileNet, NET_RECV_GET, &p_rxd ) != OSE_OK )     
;----------------------------------------------------------------------
           LDW     .D2T2   *+SP(24),B0       ; |497| 
           NOP             4
   [ B0]   BNOP    .S1     $C$L34,5          ; |497| 
           ; BRANCHCC OCCURS {$C$L34}        ; |497| 
$C$DW$L$_Send_Recive_Packet__FUiPvT2T1$7$E:
;** --------------------------------------------------------------------------*
	.dwpsn	file "test_c.cpp",line 500,column 3,is_stmt
;----------------------------------------------------------------------
; 500 | return TPO_ERR;                                                        
;----------------------------------------------------------------------
           MVKL    .S1     ___syscall_tab+284,A3
           MVKH    .S1     ___syscall_tab+284,A3
           LDW     .D1T1   *A3,A3            ; |500| 
           LDW     .D2T1   *+SP(4),A4        ; |500| 
           ADD     .D2     SP,20,B5          ; |500| 
           MVK     .S2     0x1102,B4         ; |500| 
           MV      .L1X    B5,A6             ; |500| 
$C$DW$360	.dwtag  DW_TAG_TI_branch
	.dwattr $C$DW$360, DW_AT_low_pc(0x00)
	.dwattr $C$DW$360, DW_AT_TI_call
	.dwattr $C$DW$360, DW_AT_TI_indirect
           CALL    .S2X    A3                ; |500| 
           ADDKPC  .S2     $C$RL17,B3,4      ; |500| 
$C$RL17:   ; CALL OCCURS {A3} {0}            ; |500| 
           MV      .L1     A4,A0             ; |500| 
   [!A0]   BNOP    .S1     $C$L37,5          ; |500| 
           ; BRANCHCC OCCURS {$C$L37}        ; |500| 
;** --------------------------------------------------------------------------*
	.dwpsn	file "test_c.cpp",line 501,column 2,is_stmt
;----------------------------------------------------------------------
; 501 | if( p_rxd != NULL )                                                    
;----------------------------------------------------------------------
           BNOP    .S1     $C$L45,4          ; |501| 
           MVK     .L1     0x1,A4            ; |501| 
           ; BRANCH OCCURS {$C$L45}          ; |501| 
;** --------------------------------------------------------------------------*
$C$L37:    
	.dwpsn	file "test_c.cpp",line 502,column 3,is_stmt
;----------------------------------------------------------------------
; 502 | if( drv_ioctl( FileNet, NET_RECV_PUT, &p_rxd ) != OSE_OK )             
;----------------------------------------------------------------------
           LDW     .D2T2   *+SP(20),B0       ; |502| 
           NOP             4
   [ B0]   BNOP    .S1     $C$L38,5          ; |502| 
           ; BRANCHCC OCCURS {$C$L38}        ; |502| 
;** --------------------------------------------------------------------------*
	.dwpsn	file "test_c.cpp",line 503,column 2,is_stmt
;----------------------------------------------------------------------
; 503 | return TPO_ERR;                                                        
;----------------------------------------------------------------------
           BNOP    .S1     $C$L45,4          ; |503| 
           MVK     .L1     0x1,A4            ; |503| 
           ; BRANCH OCCURS {$C$L45}          ; |503| 
;** --------------------------------------------------------------------------*
$C$L38:    
	.dwpsn	file "test_c.cpp",line 504,column 3,is_stmt
;----------------------------------------------------------------------
; 504 | }while(p_rxd != NULL);                                                 
;----------------------------------------------------------------------
           MV      .L2     B0,B4
           LDW     .D2T2   *+B4(8),B5        ; |504| 
           MVK     .S2     140,B31           ; |504| 
           NOP             3
           CMPGTU  .L2     B31,B5,B0         ; |504| 
   [!B0]   BNOP    .S1     $C$L39,5          ; |504| 
           ; BRANCHCC OCCURS {$C$L39}        ; |504| 
;** --------------------------------------------------------------------------*
	.dwpsn	file "test_c.cpp",line 505,column 2,is_stmt
           BNOP    .S1     $C$L45,4          ; |505| 
           MVK     .L1     0x1,A4            ; |505| 
           ; BRANCH OCCURS {$C$L45}          ; |505| 
;** --------------------------------------------------------------------------*
$C$L39:    
	.dwpsn	file "test_c.cpp",line 507,column 2,is_stmt
;----------------------------------------------------------------------
; 507 | if( drv_ioctl( FileNet, NET_SEND_GET, &p_txd ) != OSE_OK )    //
;     |                                                               
; 508 |       return TPO_ERR;                                                  
; 509 | if( p_txd == NULL )                                                    
; 510 |       return TPO_ERR;                                                  
;----------------------------------------------------------------------
           MVKL    .S2     ___syscall_tab+252,B4
           MVKH    .S2     ___syscall_tab+252,B4
           LDW     .D2T2   *B4,B4            ; |507| 
           MVK     .S1     0x64,A4           ; |507| 
           NOP             3
$C$DW$361	.dwtag  DW_TAG_TI_branch
	.dwattr $C$DW$361, DW_AT_low_pc(0x00)
	.dwattr $C$DW$361, DW_AT_TI_call
	.dwattr $C$DW$361, DW_AT_TI_indirect
           CALL    .S2     B4                ; |507| 
           ADDKPC  .S2     $C$RL18,B3,4      ; |507| 
$C$RL18:   ; CALL OCCURS {B4} {0}            ; |507| 
	.dwpsn	file "test_c.cpp",line 511,column 3,is_stmt
;----------------------------------------------------------------------
; 511 | if( LEN_BUF1_FOR_TEST_SK > p_txd->size )                               
;----------------------------------------------------------------------
           LDW     .D2T2   *+SP(20),B5       ; |511| 
           LDW     .D2T1   *+SP(16),A6       ; |511| 
           LDW     .D2T2   *+SP(8),B4        ; |511| 
           NOP             1
$C$DW$362	.dwtag  DW_TAG_TI_branch
	.dwattr $C$DW$362, DW_AT_low_pc(0x00)
	.dwattr $C$DW$362, DW_AT_name("_memcpy")
	.dwattr $C$DW$362, DW_AT_TI_call
           CALL    .S1     _memcpy           ; |511| 
           LDW     .D2T1   *+B5(16),A4       ; |511| 
           ADDKPC  .S2     $C$RL19,B3,3      ; |511| 
$C$RL19:   ; CALL OCCURS {_memcpy} {0}       ; |511| 
	.dwpsn	file "test_c.cpp",line 512,column 3,is_stmt
;----------------------------------------------------------------------
; 512 | return TPO_ERR;                                                        
; 514 | sleep_m(100);                                                          
; 515 | //      sleep_m(50);                                                   
;----------------------------------------------------------------------
           LDW     .D2T2   *+SP(16),B4       ; |512| 
           LDW     .D2T1   *+SP(20),A3       ; |512| 
           NOP             4
           STW     .D1T2   B4,*+A3(12)       ; |512| 
	.dwpsn	file "test_c.cpp",line 516,column 3,is_stmt
;----------------------------------------------------------------------
; 516 | //while(tim--);                                                        
;----------------------------------------------------------------------
           MVKL    .S1     ___syscall_tab+284,A3
           MVKH    .S1     ___syscall_tab+284,A3
           LDW     .D1T1   *A3,A3            ; |516| 
           LDW     .D2T1   *+SP(4),A4        ; |516| 
           ADD     .D2     SP,20,B5          ; |516| 
           MVK     .S2     0x1103,B4         ; |516| 
           MV      .L1X    B5,A6             ; |516| 
$C$DW$363	.dwtag  DW_TAG_TI_branch
	.dwattr $C$DW$363, DW_AT_low_pc(0x00)
	.dwattr $C$DW$363, DW_AT_TI_call
	.dwattr $C$DW$363, DW_AT_TI_indirect
           CALL    .S2X    A3                ; |516| 
           ADDKPC  .S2     $C$RL20,B3,4      ; |516| 
$C$RL20:   ; CALL OCCURS {A3} {0}            ; |516| 
           MV      .L1     A4,A0             ; |516| 
   [!A0]   BNOP    .S1     $C$L40,5          ; |516| 
           ; BRANCHCC OCCURS {$C$L40}        ; |516| 
;** --------------------------------------------------------------------------*
	.dwpsn	file "test_c.cpp",line 517,column 2,is_stmt
;----------------------------------------------------------------------
; 518 | memcpy( p_txd->data, Pack_wr, len );                                   
; 519 | p_txd->length = len;                                                   
; 521 | //res = VAL;                                                           
;----------------------------------------------------------------------
           BNOP    .S1     $C$L45,4          ; |517| 
           MVK     .L1     0x1,A4            ; |517| 
           ; BRANCH OCCURS {$C$L45}          ; |517| 
;** --------------------------------------------------------------------------*
$C$L40:    
	.dwpsn	file "test_c.cpp",line 522,column 2,is_stmt
;----------------------------------------------------------------------
; 522 | //VAL = res | 0x8;                                                     
; 523 | if( drv_ioctl( FileNet, NET_SEND_PUT, &p_txd ) != OSE_OK )    //
; 524 |                                                                      
; 525 |       return TPO_ERR;                                                  
;----------------------------------------------------------------------
           MVKL    .S2     ___syscall_tab+252,B4
           MVKH    .S2     ___syscall_tab+252,B4
           LDW     .D2T2   *B4,B4            ; |522| 
           MVK     .S1     0x64,A4           ; |522| 
           NOP             3
$C$DW$364	.dwtag  DW_TAG_TI_branch
	.dwattr $C$DW$364, DW_AT_low_pc(0x00)
	.dwattr $C$DW$364, DW_AT_TI_call
	.dwattr $C$DW$364, DW_AT_TI_indirect
           CALL    .S2     B4                ; |522| 
           ADDKPC  .S2     $C$RL21,B3,4      ; |522| 
$C$RL21:   ; CALL OCCURS {B4} {0}            ; |522| 
	.dwpsn	file "test_c.cpp",line 526,column 3,is_stmt
;----------------------------------------------------------------------
; 526 | //VAL = res & (~0x8);                                                  
;----------------------------------------------------------------------
           MVKL    .S1     ___syscall_tab+284,A3
           MVKH    .S1     ___syscall_tab+284,A3
           LDW     .D1T1   *A3,A3            ; |526| 
           LDW     .D2T1   *+SP(4),A4        ; |526| 
           ADD     .D2     SP,24,B5          ; |526| 
           MVK     .S2     0x1100,B4         ; |526| 
           MV      .L1X    B5,A6             ; |526| 
$C$DW$365	.dwtag  DW_TAG_TI_branch
	.dwattr $C$DW$365, DW_AT_low_pc(0x00)
	.dwattr $C$DW$365, DW_AT_TI_call
	.dwattr $C$DW$365, DW_AT_TI_indirect
           CALL    .S2X    A3                ; |526| 
           ADDKPC  .S2     $C$RL22,B3,4      ; |526| 
$C$RL22:   ; CALL OCCURS {A3} {0}            ; |526| 
           MV      .L1     A4,A0             ; |526| 
   [!A0]   BNOP    .S1     $C$L41,5          ; |526| 
           ; BRANCHCC OCCURS {$C$L41}        ; |526| 
;** --------------------------------------------------------------------------*
	.dwpsn	file "test_c.cpp",line 527,column 2,is_stmt
           BNOP    .S1     $C$L45,4          ; |527| 
           MVK     .L1     0x1,A4            ; |527| 
           ; BRANCH OCCURS {$C$L45}          ; |527| 
;** --------------------------------------------------------------------------*
$C$L41:    
	.dwpsn	file "test_c.cpp",line 528,column 3,is_stmt
           LDW     .D2T2   *+SP(24),B0       ; |528| 
           NOP             4
   [ B0]   BNOP    .S1     $C$L42,5          ; |528| 
           ; BRANCHCC OCCURS {$C$L42}        ; |528| 
;** --------------------------------------------------------------------------*
	.dwpsn	file "test_c.cpp",line 529,column 2,is_stmt
           BNOP    .S1     $C$L45,4          ; |529| 
           MVK     .L1     0x1,A4            ; |529| 
           ; BRANCH OCCURS {$C$L45}          ; |529| 
;** --------------------------------------------------------------------------*
$C$L42:    
	.dwpsn	file "test_c.cpp",line 530,column 3,is_stmt
;----------------------------------------------------------------------
; 530 | sleep_m(100);                                                          
;----------------------------------------------------------------------

           MV      .L2     B0,B5
||         LDW     .D2T2   *+SP(16),B4       ; |530| 

           LDW     .D2T2   *+B5(12),B5       ; |530| 
           NOP             4
           CMPEQ   .L2     B5,B4,B0          ; |530| 
   [ B0]   BNOP    .S1     $C$L43,5          ; |530| 
           ; BRANCHCC OCCURS {$C$L43}        ; |530| 
;** --------------------------------------------------------------------------*
	.dwpsn	file "test_c.cpp",line 531,column 2,is_stmt
;----------------------------------------------------------------------
; 531 | //tim = 0x500000;                                                      
; 532 | //while(tim--);                                                        
;----------------------------------------------------------------------
           BNOP    .S1     $C$L45,4          ; |531| 
           MVK     .L1     0x1,A4            ; |531| 
           ; BRANCH OCCURS {$C$L45}          ; |531| 
;** --------------------------------------------------------------------------*
$C$L43:    
	.dwpsn	file "test_c.cpp",line 533,column 3,is_stmt
;----------------------------------------------------------------------
; 534 | if( drv_ioctl( FileNet, NET_RECV_GET, &p_rxd ) != OSE_OK )             
;----------------------------------------------------------------------
           LDW     .D2T2   *+SP(24),B4       ; |533| 
           LDW     .D2T1   *+SP(12),A4       ; |533| 
           NOP             3
$C$DW$366	.dwtag  DW_TAG_TI_branch
	.dwattr $C$DW$366, DW_AT_low_pc(0x04)
	.dwattr $C$DW$366, DW_AT_name("_memcpy")
	.dwattr $C$DW$366, DW_AT_TI_call

           MV      .L1X    B4,A3             ; |533| 
||         CALL    .S1     _memcpy           ; |533| 

           LDW     .D2T1   *+B4(12),A6       ; |533| 
||         LDW     .D1T2   *+A3(16),B4       ; |533| 

           ADDKPC  .S2     $C$RL23,B3,3      ; |533| 
$C$RL23:   ; CALL OCCURS {_memcpy} {0}       ; |533| 
	.dwpsn	file "test_c.cpp",line 535,column 2,is_stmt
;----------------------------------------------------------------------
; 535 | return TPO_ERR;                                                        
; 536 | if( p_rxd == NULL )                                                    
; 537 | return TPO_ERR;                                                        
; 538 | if( p_rxd->length != len)                                              
;----------------------------------------------------------------------
           MVKL    .S2     ___syscall_tab+252,B4
           MVKH    .S2     ___syscall_tab+252,B4
           LDW     .D2T2   *B4,B4            ; |535| 
           MVK     .S1     0x64,A4           ; |535| 
           NOP             3
$C$DW$367	.dwtag  DW_TAG_TI_branch
	.dwattr $C$DW$367, DW_AT_low_pc(0x00)
	.dwattr $C$DW$367, DW_AT_TI_call
	.dwattr $C$DW$367, DW_AT_TI_indirect
           CALL    .S2     B4                ; |535| 
           ADDKPC  .S2     $C$RL24,B3,4      ; |535| 
$C$RL24:   ; CALL OCCURS {B4} {0}            ; |535| 
	.dwpsn	file "test_c.cpp",line 539,column 3,is_stmt
;----------------------------------------------------------------------
; 539 | return TPO_ERR;                                                        
;----------------------------------------------------------------------
           MVKL    .S1     ___syscall_tab+284,A3
           MVKH    .S1     ___syscall_tab+284,A3
           LDW     .D1T1   *A3,A3            ; |539| 
           LDW     .D2T1   *+SP(4),A4        ; |539| 
           ADD     .D2     SP,24,B4          ; |539| 
           NOP             2
$C$DW$368	.dwtag  DW_TAG_TI_branch
	.dwattr $C$DW$368, DW_AT_low_pc(0x00)
	.dwattr $C$DW$368, DW_AT_TI_call
	.dwattr $C$DW$368, DW_AT_TI_indirect
           CALL    .S2X    A3                ; |539| 
           MV      .L1X    B4,A6             ; |539| 
           MVK     .S2     0x1101,B4         ; |539| 
           ADDKPC  .S2     $C$RL25,B3,2      ; |539| 
$C$RL25:   ; CALL OCCURS {A3} {0}            ; |539| 
           MV      .L1     A4,A0             ; |539| 
   [!A0]   BNOP    .S1     $C$L44,5          ; |539| 
           ; BRANCHCC OCCURS {$C$L44}        ; |539| 
;** --------------------------------------------------------------------------*
	.dwpsn	file "test_c.cpp",line 540,column 2,is_stmt
;----------------------------------------------------------------------
; 541 | memcpy( Pack_rd, p_rxd->data, p_rxd->length );                         
;----------------------------------------------------------------------
           BNOP    .S1     $C$L45,4          ; |540| 
           MVK     .L1     0x1,A4            ; |540| 
           ; BRANCH OCCURS {$C$L45}          ; |540| 
;** --------------------------------------------------------------------------*
$C$L44:    
	.dwpsn	file "test_c.cpp",line 543,column 3,is_stmt
;----------------------------------------------------------------------
; 543 | sleep_m(100);                                                          
;----------------------------------------------------------------------
           ZERO    .L1     A4                ; |543| 
;** --------------------------------------------------------------------------*
$C$L45:    
	.dwpsn	file "test_c.cpp",line 544,column 1,is_stmt
;----------------------------------------------------------------------
; 544 | //tim = 0x500000;                                                      
;----------------------------------------------------------------------
           LDW     .D2T2   *++SP(32),B3      ; |544| 
           NOP             4
	.dwcfi	cfa_offset, 0
	.dwcfi	restore_reg, 19
	.dwcfi	cfa_offset, 0
$C$DW$369	.dwtag  DW_TAG_TI_branch
	.dwattr $C$DW$369, DW_AT_low_pc(0x00)
	.dwattr $C$DW$369, DW_AT_TI_return
           RETNOP  .S2     B3,5              ; |544| 
           ; BRANCH OCCURS {B3}              ; |544| 

$C$DW$370	.dwtag  DW_TAG_TI_loop
	.dwattr $C$DW$370, DW_AT_name("C:\1901VC1T_Inteltech\3rdPartyLIB\dsp_core\C6000\tpo_amoeba\source\test_c.asm:$C$L34:1:1517815039")
	.dwattr $C$DW$370, DW_AT_TI_begin_file("test_c.cpp")
	.dwattr $C$DW$370, DW_AT_TI_begin_line(0x1ea)
	.dwattr $C$DW$370, DW_AT_TI_end_line(0x1f1)
$C$DW$371	.dwtag  DW_TAG_TI_loop_range
	.dwattr $C$DW$371, DW_AT_low_pc($C$DW$L$_Send_Recive_Packet__FUiPvT2T1$2$B)
	.dwattr $C$DW$371, DW_AT_high_pc($C$DW$L$_Send_Recive_Packet__FUiPvT2T1$2$E)
$C$DW$372	.dwtag  DW_TAG_TI_loop_range
	.dwattr $C$DW$372, DW_AT_low_pc($C$DW$L$_Send_Recive_Packet__FUiPvT2T1$4$B)
	.dwattr $C$DW$372, DW_AT_high_pc($C$DW$L$_Send_Recive_Packet__FUiPvT2T1$4$E)
$C$DW$373	.dwtag  DW_TAG_TI_loop_range
	.dwattr $C$DW$373, DW_AT_low_pc($C$DW$L$_Send_Recive_Packet__FUiPvT2T1$5$B)
	.dwattr $C$DW$373, DW_AT_high_pc($C$DW$L$_Send_Recive_Packet__FUiPvT2T1$5$E)
$C$DW$374	.dwtag  DW_TAG_TI_loop_range
	.dwattr $C$DW$374, DW_AT_low_pc($C$DW$L$_Send_Recive_Packet__FUiPvT2T1$7$B)
	.dwattr $C$DW$374, DW_AT_high_pc($C$DW$L$_Send_Recive_Packet__FUiPvT2T1$7$E)
	.dwendtag $C$DW$370

	.dwattr $C$DW$346, DW_AT_TI_end_file("test_c.cpp")
	.dwattr $C$DW$346, DW_AT_TI_end_line(0x220)
	.dwattr $C$DW$346, DW_AT_TI_end_column(0x01)
	.dwendentry
	.dwendtag $C$DW$346

	.sect	".text"
	.clink
	.global	_Test_SK__Fv

$C$DW$375	.dwtag  DW_TAG_subprogram, DW_AT_name("Test_SK")
	.dwattr $C$DW$375, DW_AT_low_pc(_Test_SK__Fv)
	.dwattr $C$DW$375, DW_AT_high_pc(0x00)
	.dwattr $C$DW$375, DW_AT_TI_symbol_name("_Test_SK__Fv")
	.dwattr $C$DW$375, DW_AT_external
	.dwattr $C$DW$375, DW_AT_type(*$C$DW$T$47)
	.dwattr $C$DW$375, DW_AT_TI_begin_file("test_c.cpp")
	.dwattr $C$DW$375, DW_AT_TI_begin_line(0x228)
	.dwattr $C$DW$375, DW_AT_TI_begin_column(0x08)
	.dwpsn	file "test_c.cpp",line 553,column 1,is_stmt,address _Test_SK__Fv

	.dwfde $C$DW$CIE, _Test_SK__Fv

;******************************************************************************
;* FUNCTION NAME: Test_SK()                                                   *
;*                                                                            *
;*   Regs Modified     : A0,A1,A2,A3,A4,A5,A6,A7,A8,A9,B0,B1,B2,B3,B4,B5,B6,  *
;*                           B7,B8,B9,SP,A16,A17,A18,A19,A20,A21,A22,A23,A24, *
;*                           A25,A26,A27,A28,A29,A30,A31,B16,B17,B18,B19,B20, *
;*                           B21,B22,B23,B24,B25,B26,B27,B28,B29,B30,B31      *
;*   Regs Used         : A0,A1,A2,A3,A4,A5,A6,A7,A8,A9,B0,B1,B2,B3,B4,B5,B6,  *
;*                           B7,B8,B9,SP,A16,A17,A18,A19,A20,A21,A22,A23,A24, *
;*                           A25,A26,A27,A28,A29,A30,A31,B16,B17,B18,B19,B20, *
;*                           B21,B22,B23,B24,B25,B26,B27,B28,B29,B30,B31      *
;*   Local Frame Size  : 0 Args + 452 Auto + 4 Save = 456 byte                *
;******************************************************************************
_Test_SK__Fv:
;** --------------------------------------------------------------------------*
	.dwcfi	cfa_offset, 0
	.dwcfi	save_reg_to_reg, 228, 19
           ADDK    .S2     -456,SP           ; |553| 
	.dwcfi	cfa_offset, 456
           STW     .D2T2   B3,*+SP(456)      ; |553| 
	.dwcfi	save_reg_to_mem, 19, 0
$C$DW$376	.dwtag  DW_TAG_variable, DW_AT_name("res")
	.dwattr $C$DW$376, DW_AT_TI_symbol_name("_res")
	.dwattr $C$DW$376, DW_AT_type(*$C$DW$T$47)
	.dwattr $C$DW$376, DW_AT_location[DW_OP_breg31 4]
$C$DW$377	.dwtag  DW_TAG_variable, DW_AT_name("error")
	.dwattr $C$DW$377, DW_AT_TI_symbol_name("_error")
	.dwattr $C$DW$377, DW_AT_type(*$C$DW$T$10)
	.dwattr $C$DW$377, DW_AT_location[DW_OP_breg31 8]
$C$DW$378	.dwtag  DW_TAG_variable, DW_AT_name("id1")
	.dwattr $C$DW$378, DW_AT_TI_symbol_name("_id1")
	.dwattr $C$DW$378, DW_AT_type(*$C$DW$T$47)
	.dwattr $C$DW$378, DW_AT_location[DW_OP_breg31 12]
$C$DW$379	.dwtag  DW_TAG_variable, DW_AT_name("id2")
	.dwattr $C$DW$379, DW_AT_TI_symbol_name("_id2")
	.dwattr $C$DW$379, DW_AT_type(*$C$DW$T$47)
	.dwattr $C$DW$379, DW_AT_location[DW_OP_breg31 16]
$C$DW$380	.dwtag  DW_TAG_variable, DW_AT_name("link")
	.dwattr $C$DW$380, DW_AT_TI_symbol_name("_link")
	.dwattr $C$DW$380, DW_AT_type(*$C$DW$T$701)
	.dwattr $C$DW$380, DW_AT_location[DW_OP_breg31 20]
$C$DW$381	.dwtag  DW_TAG_variable, DW_AT_name("buf_big_wr")
	.dwattr $C$DW$381, DW_AT_TI_symbol_name("_buf_big_wr")
	.dwattr $C$DW$381, DW_AT_type(*$C$DW$T$705)
	.dwattr $C$DW$381, DW_AT_location[DW_OP_breg31 24]
$C$DW$382	.dwtag  DW_TAG_variable, DW_AT_name("buf_small_wr")
	.dwattr $C$DW$382, DW_AT_TI_symbol_name("_buf_small_wr")
	.dwattr $C$DW$382, DW_AT_type(*$C$DW$T$703)
	.dwattr $C$DW$382, DW_AT_location[DW_OP_breg31 168]
$C$DW$383	.dwtag  DW_TAG_variable, DW_AT_name("buf_big_rd")
	.dwattr $C$DW$383, DW_AT_TI_symbol_name("_buf_big_rd")
	.dwattr $C$DW$383, DW_AT_type(*$C$DW$T$705)
	.dwattr $C$DW$383, DW_AT_location[DW_OP_breg31 232]
$C$DW$384	.dwtag  DW_TAG_variable, DW_AT_name("buf_small_rd")
	.dwattr $C$DW$384, DW_AT_TI_symbol_name("_buf_small_rd")
	.dwattr $C$DW$384, DW_AT_type(*$C$DW$T$703)
	.dwattr $C$DW$384, DW_AT_location[DW_OP_breg31 376]
$C$DW$385	.dwtag  DW_TAG_variable, DW_AT_name("FileNet")
	.dwattr $C$DW$385, DW_AT_TI_symbol_name("_FileNet")
	.dwattr $C$DW$385, DW_AT_type(*$C$DW$T$47)
	.dwattr $C$DW$385, DW_AT_location[DW_OP_breg31 440]
$C$DW$386	.dwtag  DW_TAG_variable, DW_AT_name("phy_reg")
	.dwattr $C$DW$386, DW_AT_TI_symbol_name("_phy_reg")
	.dwattr $C$DW$386, DW_AT_type(*$C$DW$T$585)
	.dwattr $C$DW$386, DW_AT_location[DW_OP_breg31 444]
$C$DW$387	.dwtag  DW_TAG_label, DW_AT_name("end_tst_sk"), DW_AT_low_pc($C$L57)
	.dwattr $C$DW$387, DW_AT_TI_symbol_name("_end_tst_sk")
	.dwpsn	file "test_c.cpp",line 554,column 8,is_stmt
           ZERO    .L2     B4                ; |554| 
           STW     .D2T2   B4,*+SP(4)        ; |554| 
	.dwpsn	file "test_c.cpp",line 555,column 5,is_stmt
;----------------------------------------------------------------------
; 556 | //---------------------------------------------------------------------
;     | -------                                                                
; 557 | //#define ERR_RW_M              1//1 -                     
; 558 |                                                     
;----------------------------------------------------------------------
           STW     .D2T2   B4,*+SP(8)        ; |555| 
	.dwpsn	file "test_c.cpp",line 559,column 8,is_stmt
           ZERO    .L1     A3                ; |559| 
           STW     .D2T1   A3,*+SP(12)       ; |559| 
	.dwpsn	file "test_c.cpp",line 560,column 8,is_stmt
;----------------------------------------------------------------------
; 560 | //#define ERR_LOOP_M            2//2 -  LOOPBACK          
;----------------------------------------------------------------------
           STW     .D2T1   A3,*+SP(16)       ; |560| 
	.dwpsn	file "test_c.cpp",line 561,column 6,is_stmt
;----------------------------------------------------------------------
; 561 | //#define ERR_LOOP_PHY  4//4 -  LOOPBACK         
; 562 | uint32 Test_SK()                                                       
; 564 | uint32 res = 0;                                                        
; 565 | int error = 0;                                                         
; 567 | //uint32* reg_gpio = (uint32*)0x01B00008;                              
;----------------------------------------------------------------------
           STB     .D2T1   A3,*+SP(20)       ; |561| 
	.dwpsn	file "test_c.cpp",line 568,column 1,is_stmt
;----------------------------------------------------------------------
; 568 | //uint32 l = 0;                                                        
;----------------------------------------------------------------------
$C$DW$388	.dwtag  DW_TAG_TI_branch
	.dwattr $C$DW$388, DW_AT_low_pc(0x00)
	.dwattr $C$DW$388, DW_AT_name("_memset")
	.dwattr $C$DW$388, DW_AT_TI_call
           CALL    .S1     _memset           ; |568| 
           ADD     .D2     SP,24,B5          ; |568| 
           MVK     .S2     0xaa,B4           ; |568| 
           MV      .L1X    B5,A4             ; |568| 
           ADDKPC  .S2     $C$RL26,B3,0      ; |568| 
           MVK     .S1     0x8c,A6           ; |568| 
$C$RL26:   ; CALL OCCURS {_memset} {0}       ; |568| 
	.dwpsn	file "test_c.cpp",line 569,column 1,is_stmt
;----------------------------------------------------------------------
; 569 | uint32 id1 = 0;                                                        
;----------------------------------------------------------------------
$C$DW$389	.dwtag  DW_TAG_TI_branch
	.dwattr $C$DW$389, DW_AT_low_pc(0x00)
	.dwattr $C$DW$389, DW_AT_name("_memset")
	.dwattr $C$DW$389, DW_AT_TI_call
           CALL    .S1     _memset           ; |569| 
           ADDAD   .D2     SP,21,B5          ; |569| 
           MVK     .S2     0x55,B4           ; |569| 
           MV      .L1X    B5,A4             ; |569| 
           ADDKPC  .S2     $C$RL27,B3,0      ; |569| 
           MVK     .S1     0x40,A6           ; |569| 
$C$RL27:   ; CALL OCCURS {_memset} {0}       ; |569| 
	.dwpsn	file "test_c.cpp",line 570,column 1,is_stmt
;----------------------------------------------------------------------
; 570 | uint32 id2 = 0;                                                        
;----------------------------------------------------------------------
$C$DW$390	.dwtag  DW_TAG_TI_branch
	.dwattr $C$DW$390, DW_AT_low_pc(0x00)
	.dwattr $C$DW$390, DW_AT_name("_memset")
	.dwattr $C$DW$390, DW_AT_TI_call
           CALL    .S1     _memset           ; |570| 
           ADDAD   .D2     SP,29,B4          ; |570| 
           ADDKPC  .S2     $C$RL28,B3,2      ; |570| 

           MVK     .S1     0x8c,A6           ; |570| 
||         MV      .L1X    B4,A4             ; |570| 
||         ZERO    .L2     B4                ; |570| 

$C$RL28:   ; CALL OCCURS {_memset} {0}       ; |570| 
	.dwpsn	file "test_c.cpp",line 571,column 1,is_stmt
;----------------------------------------------------------------------
; 571 | bool link = false;                                                     
;----------------------------------------------------------------------
$C$DW$391	.dwtag  DW_TAG_TI_branch
	.dwattr $C$DW$391, DW_AT_low_pc(0x00)
	.dwattr $C$DW$391, DW_AT_name("_memset")
	.dwattr $C$DW$391, DW_AT_TI_call
           CALL    .S1     _memset           ; |571| 
           MVK     .S2     376,B4            ; |571| 
           ADD     .L2     B4,SP,B4          ; |571| 
           ADDKPC  .S2     $C$RL29,B3,1      ; |571| 

           MVK     .S1     0x40,A6           ; |571| 
||         MV      .L1X    B4,A4             ; |571| 
||         ZERO    .L2     B4                ; |571| 

$C$RL29:   ; CALL OCCURS {_memset} {0}       ; |571| 
	.dwpsn	file "test_c.cpp",line 573,column 8,is_stmt
;----------------------------------------------------------------------
; 573 | uint8 buf_big_wr[LEN_BUF1_FOR_TEST_SK]; //1514                         
;----------------------------------------------------------------------
           MVKL    .S1     ___syscall_tab+292,A3
           MVKH    .S1     ___syscall_tab+292,A3
           LDW     .D1T1   *A3,A3            ; |573| 
           MVKL    .S1     $C$SL1+0,A4       ; |573| 
           MVKH    .S1     $C$SL1+0,A4       ; |573| 
           NOP             2
$C$DW$392	.dwtag  DW_TAG_TI_branch
	.dwattr $C$DW$392, DW_AT_low_pc(0x00)
	.dwattr $C$DW$392, DW_AT_TI_call
	.dwattr $C$DW$392, DW_AT_TI_indirect
           CALL    .S2X    A3                ; |573| 
           ADDKPC  .S2     $C$RL30,B3,4      ; |573| 
$C$RL30:   ; CALL OCCURS {A3} {0}            ; |573| 
           STW     .D2T1   A4,*+SP(440)      ; |573| 
	.dwpsn	file "test_c.cpp",line 574,column 2,is_stmt
;----------------------------------------------------------------------
; 574 | uint8 buf_small_wr[LEN_BUF2_FOR_TEST_SK];       //64                   
;----------------------------------------------------------------------
           MV      .L2X    A4,B0
   [ B0]   BNOP    .S1     $C$L46,5          ; |574| 
           ; BRANCHCC OCCURS {$C$L46}        ; |574| 
;** --------------------------------------------------------------------------*
	.dwpsn	file "test_c.cpp",line 575,column 3,is_stmt
;----------------------------------------------------------------------
; 575 | uint8 buf_big_rd[LEN_BUF1_FOR_TEST_SK]; //1514                         
; 576 | uint8 buf_small_rd[LEN_BUF2_FOR_TEST_SK];       //64                   
; 578 | memset(buf_big_wr, 0xAA, LEN_BUF1_FOR_TEST_SK);                        
; 579 | memset(buf_small_wr, 0x55, LEN_BUF2_FOR_TEST_SK);                      
; 580 | memset(buf_big_rd, 0, LEN_BUF1_FOR_TEST_SK);                           
;----------------------------------------------------------------------
           BNOP    .S1     $C$L58,4          ; |575| 
           MVK     .L1     0x1,A4            ; |575| 
           ; BRANCH OCCURS {$C$L58}          ; |575| 
;** --------------------------------------------------------------------------*
$C$L46:    
	.dwpsn	file "test_c.cpp",line 581,column 1,is_stmt
;----------------------------------------------------------------------
; 581 | memset(buf_small_rd, 0, LEN_BUF2_FOR_TEST_SK);                         
;----------------------------------------------------------------------
           MVK     .S2     4371,B4           ; |581| 
           STW     .D2T2   B4,*+SP(444)      ; |581| 
	.dwpsn	file "test_c.cpp",line 582,column 1,is_stmt
           MVK     .L2     2,B4              ; |582| 
           STW     .D2T2   B4,*+SP(448)      ; |582| 
	.dwpsn	file "test_c.cpp",line 583,column 1,is_stmt
;----------------------------------------------------------------------
; 583 | uint32 FileNet = drv_mkd("/dev/net/eth0");                             
;----------------------------------------------------------------------
           MVKL    .S1     ___syscall_tab+284,A3
           MVKH    .S1     ___syscall_tab+284,A3
           LDW     .D1T1   *A3,A3            ; |583| 
           MVK     .S2     444,B4            ; |583| 
           ADD     .L2     B4,SP,B5          ; |583| 
           MVK     .S2     0x1110,B4         ; |583| 
           MV      .L1X    B5,A6             ; |583| 
$C$DW$393	.dwtag  DW_TAG_TI_branch
	.dwattr $C$DW$393, DW_AT_low_pc(0x00)
	.dwattr $C$DW$393, DW_AT_TI_call
	.dwattr $C$DW$393, DW_AT_TI_indirect
           CALL    .S2X    A3                ; |583| 
           ADDKPC  .S2     $C$RL31,B3,4      ; |583| 
$C$RL31:   ; CALL OCCURS {A3} {0}            ; |583| 
           STW     .D2T1   A4,*+SP(8)        ; |583| 
	.dwpsn	file "test_c.cpp",line 584,column 2,is_stmt
;----------------------------------------------------------------------
; 584 | if(FileNet == RES_VOID)                                                
; 585 |         return TPO_ERR;                                                
;----------------------------------------------------------------------
           MV      .L2X    A4,B0
   [!B0]   BNOP    .S1     $C$L47,5          ; |584| 
           ; BRANCHCC OCCURS {$C$L47}        ; |584| 
;** --------------------------------------------------------------------------*
	.dwpsn	file "test_c.cpp",line 586,column 3,is_stmt
           MVK     .L2     1,B4              ; |586| 
           STW     .D2T2   B4,*+SP(4)        ; |586| 
	.dwpsn	file "test_c.cpp",line 587,column 3,is_stmt
;----------------------------------------------------------------------
; 588 | #ifdef TPO5                                                            
;----------------------------------------------------------------------
           BNOP    .S1     $C$L57,5          ; |587| 
           ; BRANCH OCCURS {$C$L57}          ; |587| 
;** --------------------------------------------------------------------------*
$C$L47:    
	.dwpsn	file "test_c.cpp",line 589,column 1,is_stmt
;----------------------------------------------------------------------
; 589 | dev_reg phy_reg;                                                       
;----------------------------------------------------------------------
           LDW     .D2T2   *+SP(452),B4      ; |589| 
           NOP             4
           EXTU    .S2     B4,16,16,B4       ; |589| 
           STW     .D2T2   B4,*+SP(12)       ; |589| 
	.dwpsn	file "test_c.cpp",line 591,column 1,is_stmt
;----------------------------------------------------------------------
; 591 | phy_reg.device = PHY_RW_REG;                                           
;----------------------------------------------------------------------
           MVK     .L2     3,B4              ; |591| 
           STW     .D2T2   B4,*+SP(448)      ; |591| 
	.dwpsn	file "test_c.cpp",line 592,column 1,is_stmt
;----------------------------------------------------------------------
; 592 | phy_reg.reg = PHYREG_ID1;                                              
;----------------------------------------------------------------------
           MVKL    .S1     ___syscall_tab+284,A3
           MVKH    .S1     ___syscall_tab+284,A3
           LDW     .D1T1   *A3,A3            ; |592| 
           LDW     .D2T1   *+SP(440),A4      ; |592| 
           MVK     .S2     444,B4            ; |592| 
           ADD     .L2     B4,SP,B5          ; |592| 
           MVK     .S2     0x1110,B4         ; |592| 
$C$DW$394	.dwtag  DW_TAG_TI_branch
	.dwattr $C$DW$394, DW_AT_low_pc(0x00)
	.dwattr $C$DW$394, DW_AT_TI_call
	.dwattr $C$DW$394, DW_AT_TI_indirect
           CALL    .S2X    A3                ; |592| 
           ADDKPC  .S2     $C$RL32,B3,3      ; |592| 
           MV      .L1X    B5,A6             ; |592| 
$C$RL32:   ; CALL OCCURS {A3} {0}            ; |592| 
           STW     .D2T1   A4,*+SP(8)        ; |592| 
	.dwpsn	file "test_c.cpp",line 593,column 2,is_stmt
;----------------------------------------------------------------------
; 593 | error = drv_ioctl(FileNet, NET_READ_REG, &phy_reg);                    
; 594 | if(error != OSE_OK)                                                    
;----------------------------------------------------------------------
           MV      .L2X    A4,B0
   [!B0]   BNOP    .S1     $C$L48,5          ; |593| 
           ; BRANCHCC OCCURS {$C$L48}        ; |593| 
;** --------------------------------------------------------------------------*
	.dwpsn	file "test_c.cpp",line 595,column 3,is_stmt
           MVK     .L2     1,B4              ; |595| 
           STW     .D2T2   B4,*+SP(4)        ; |595| 
	.dwpsn	file "test_c.cpp",line 596,column 3,is_stmt
;----------------------------------------------------------------------
; 596 | res = TPO_ERR;                                                         
; 597 | goto end_tst_sk;                                                       
;----------------------------------------------------------------------
           BNOP    .S1     $C$L57,5          ; |596| 
           ; BRANCH OCCURS {$C$L57}          ; |596| 
;** --------------------------------------------------------------------------*
$C$L48:    
	.dwpsn	file "test_c.cpp",line 598,column 1,is_stmt
;----------------------------------------------------------------------
; 599 | id1 = phy_reg.value & 0xFFFF;                                          
;----------------------------------------------------------------------
           LDW     .D2T2   *+SP(452),B4      ; |598| 
           ZERO    .L1     A3                ; |598| 
           SET     .S1     A3,0x8,0xf,A3     ; |598| 
           NOP             2
           AND     .L2X    A3,B4,B4          ; |598| 
           STW     .D2T2   B4,*+SP(16)       ; |598| 
	.dwpsn	file "test_c.cpp",line 600,column 1,is_stmt
           LDW     .D2T2   *+SP(12),B5       ; |600| 
           MVK     .S1     19,A3             ; |600| 
           MVK     .S2     30720,B31         ; |600| 
           CMPEQ   .L2     B4,B31,B4         ; |600| 
           NOP             1
           CMPEQ   .L2X    B5,A3,B6          ; |600| 
           AND     .L2     B6,B4,B0
   [ B0]   BNOP    .S1     $C$L49,5          ; |600| 
           ; BRANCHCC OCCURS {$C$L49}        ; |600| 
;** --------------------------------------------------------------------------*
	.dwpsn	file "test_c.cpp",line 601,column 2,is_stmt
;----------------------------------------------------------------------
; 601 | phy_reg.reg = PHYREG_ID2;                                              
;----------------------------------------------------------------------
           LDW     .D2T2   *+SP(16),B4       ; |601| 
           LDW     .D2T2   *+SP(12),B6       ; |601| 
           MVK     .S1     34,A3             ; |601| 
           MVK     .S2     5376,B5           ; |601| 
           NOP             1
           CMPEQ   .L2     B4,B5,B4          ; |601| 
           CMPEQ   .L2X    B6,A3,B5          ; |601| 
           AND     .L2     B5,B4,B0
   [ B0]   BNOP    .S1     $C$L49,5          ; |601| 
           ; BRANCHCC OCCURS {$C$L49}        ; |601| 
;** --------------------------------------------------------------------------*
	.dwpsn	file "test_c.cpp",line 602,column 2,is_stmt
;----------------------------------------------------------------------
; 602 | error = drv_ioctl(FileNet, NET_READ_REG, &phy_reg);                    
; 603 | if(error != OSE_OK)                                                    
;----------------------------------------------------------------------
           LDW     .D2T2   *+SP(4),B4        ; |602| 
           NOP             4
           OR      .L2     4,B4,B4           ; |602| 
           STW     .D2T2   B4,*+SP(4)        ; |602| 
;** --------------------------------------------------------------------------*
$C$L49:    
	.dwpsn	file "test_c.cpp",line 604,column 1,is_stmt
;----------------------------------------------------------------------
; 605 | res = TPO_ERR;                                                         
;----------------------------------------------------------------------
           ZERO    .L2     B4                ; |604| 
           STW     .D2T2   B4,*+SP(448)      ; |604| 
	.dwpsn	file "test_c.cpp",line 606,column 1,is_stmt
;----------------------------------------------------------------------
; 606 | goto end_tst_sk;                                                       
;----------------------------------------------------------------------
           MVKL    .S2     ___syscall_tab+284,B4
           MVKH    .S2     ___syscall_tab+284,B4
           LDW     .D2T2   *B4,B5            ; |606| 
           LDW     .D2T1   *+SP(440),A4      ; |606| 
           MVK     .S1     444,A3            ; |606| 
           MVK     .S2     0x1110,B4         ; |606| 
           ADD     .L1X    A3,SP,A6          ; |606| 
$C$DW$395	.dwtag  DW_TAG_TI_branch
	.dwattr $C$DW$395, DW_AT_low_pc(0x00)
	.dwattr $C$DW$395, DW_AT_TI_call
	.dwattr $C$DW$395, DW_AT_TI_indirect
           CALL    .S2     B5                ; |606| 
           ADDKPC  .S2     $C$RL33,B3,4      ; |606| 
$C$RL33:   ; CALL OCCURS {B5} {0}            ; |606| 
           STW     .D2T1   A4,*+SP(8)        ; |606| 
	.dwpsn	file "test_c.cpp",line 608,column 1,is_stmt
;----------------------------------------------------------------------
; 608 | id2 = phy_reg.value & 0xFF00;                                          
;----------------------------------------------------------------------
           LDW     .D2T2   *+SP(452),B4      ; |608| 
           NOP             4
           SET     .S2     B4,14,14,B4       ; |608| 
           STW     .D2T2   B4,*+SP(452)      ; |608| 
	.dwpsn	file "test_c.cpp",line 609,column 1,is_stmt
           MVKL    .S1     ___syscall_tab+284,A3
           MVKH    .S1     ___syscall_tab+284,A3
           LDW     .D1T1   *A3,A3            ; |609| 
           LDW     .D2T1   *+SP(440),A4      ; |609| 
           MVK     .S2     444,B4            ; |609| 
           ADD     .L2     B4,SP,B5          ; |609| 
           MVK     .S2     0x1111,B4         ; |609| 
$C$DW$396	.dwtag  DW_TAG_TI_branch
	.dwattr $C$DW$396, DW_AT_low_pc(0x00)
	.dwattr $C$DW$396, DW_AT_TI_call
	.dwattr $C$DW$396, DW_AT_TI_indirect
           CALL    .S2X    A3                ; |609| 
           ADDKPC  .S2     $C$RL34,B3,3      ; |609| 
           MV      .L1X    B5,A6             ; |609| 
$C$RL34:   ; CALL OCCURS {A3} {0}            ; |609| 
           STW     .D2T1   A4,*+SP(8)        ; |609| 
	.dwpsn	file "test_c.cpp",line 610,column 2,is_stmt
;----------------------------------------------------------------------
; 610 | if((id1 != 0x0013)|(id2 != 0x7800))                                    
; 611 | if((id1 != 0x0022)|(id2 != 0x1500))                                    
;----------------------------------------------------------------------
           MV      .L2X    A4,B0
   [!B0]   BNOP    .S1     $C$L50,5          ; |610| 
           ; BRANCHCC OCCURS {$C$L50}        ; |610| 
;** --------------------------------------------------------------------------*
	.dwpsn	file "test_c.cpp",line 612,column 3,is_stmt
;----------------------------------------------------------------------
; 612 | res|=ERR_RW_LXT;                                                       
;----------------------------------------------------------------------
           MVK     .L2     1,B4              ; |612| 
           STW     .D2T2   B4,*+SP(4)        ; |612| 
	.dwpsn	file "test_c.cpp",line 613,column 3,is_stmt
;----------------------------------------------------------------------
; 614 | phy_reg.reg = PHYREG_CONTROL;                                          
;----------------------------------------------------------------------
           BNOP    .S1     $C$L57,5          ; |613| 
           ; BRANCH OCCURS {$C$L57}          ; |613| 
;** --------------------------------------------------------------------------*
$C$L50:    
	.dwpsn	file "test_c.cpp",line 616,column 1,is_stmt
;----------------------------------------------------------------------
; 616 | error = drv_ioctl(FileNet, NET_READ_REG, &phy_reg);                    
;----------------------------------------------------------------------
           MVKL    .S1     ___syscall_tab+252,A3
           MVKH    .S1     ___syscall_tab+252,A3
           LDW     .D1T1   *A3,A3            ; |616| 
           MVK     .S1     0x64,A4           ; |616| 
           NOP             3
$C$DW$397	.dwtag  DW_TAG_TI_branch
	.dwattr $C$DW$397, DW_AT_low_pc(0x00)
	.dwattr $C$DW$397, DW_AT_TI_call
	.dwattr $C$DW$397, DW_AT_TI_indirect
           CALL    .S2X    A3                ; |616| 
           ADDKPC  .S2     $C$RL35,B3,4      ; |616| 
$C$RL35:   ; CALL OCCURS {A3} {0}            ; |616| 
	.dwpsn	file "test_c.cpp",line 618,column 1,is_stmt
;----------------------------------------------------------------------
; 618 | phy_reg.value |= PHYREG_CONTROL_LOOPBACK;               //        
;----------------------------------------------------------------------
$C$DW$398	.dwtag  DW_TAG_TI_branch
	.dwattr $C$DW$398, DW_AT_low_pc(0x00)
	.dwattr $C$DW$398, DW_AT_name("_Send_Recive_Packet__FUiPvT2T1")
	.dwattr $C$DW$398, DW_AT_TI_call
           CALL    .S1     _Send_Recive_Packet__FUiPvT2T1 ; |618| 
           LDW     .D2T1   *+SP(440),A4      ; |618| 
           ADDAD   .D2     SP,29,B5          ; |618| 
           MVK     .S2     0x8c,B6           ; |618| 
           MV      .L1X    B5,A6             ; |618| 

           ADDKPC  .S2     $C$RL36,B3,0      ; |618| 
||         ADD     .D2     SP,24,B4          ; |618| 

$C$RL36:   ; CALL OCCURS {_Send_Recive_Packet__FUiPvT2T1} {0}  ; |618| 
           STW     .D2T1   A4,*+SP(8)        ; |618| 
	.dwpsn	file "test_c.cpp",line 619,column 2,is_stmt
;----------------------------------------------------------------------
; 619 |    loopback                                                   
;----------------------------------------------------------------------
$C$DW$399	.dwtag  DW_TAG_TI_branch
	.dwattr $C$DW$399, DW_AT_low_pc(0x00)
	.dwattr $C$DW$399, DW_AT_name("_memcmp")
	.dwattr $C$DW$399, DW_AT_TI_call
           CALL    .S1     _memcmp           ; |619| 
           ADD     .D2     SP,24,B4          ; |619| 
           ADDKPC  .S2     $C$RL37,B3,2      ; |619| 

           MVK     .S1     0x8c,A6           ; |619| 
||         MV      .L1X    B4,A4             ; |619| 
||         ADDAD   .D2     SP,29,B4          ; |619| 

$C$RL37:   ; CALL OCCURS {_memcmp} {0}       ; |619| 
           LDW     .D2T2   *+SP(8),B4        ; |619| 
           NOP             4
           CMPEQ   .L2     B4,1,B4           ; |619| 
           NOP             1
           OR      .L1X    A4,B4,A0          ; |619| 
   [!A0]   BNOP    .S1     $C$L51,5          ; |619| 
           ; BRANCHCC OCCURS {$C$L51}        ; |619| 
;** --------------------------------------------------------------------------*
	.dwpsn	file "test_c.cpp",line 620,column 3,is_stmt
;----------------------------------------------------------------------
; 620 | error = drv_ioctl(FileNet, NET_WRITE_REG, &phy_reg);                   
; 621 | if(error != OSE_OK)                                                    
;----------------------------------------------------------------------
           LDW     .D2T2   *+SP(4),B4        ; |620| 
           NOP             4
           SET     .S2     B4,4,4,B4         ; |620| 
           STW     .D2T2   B4,*+SP(4)        ; |620| 
;** --------------------------------------------------------------------------*
$C$L51:    
	.dwpsn	file "test_c.cpp",line 622,column 1,is_stmt
$C$DW$400	.dwtag  DW_TAG_TI_branch
	.dwattr $C$DW$400, DW_AT_low_pc(0x00)
	.dwattr $C$DW$400, DW_AT_name("_Send_Recive_Packet__FUiPvT2T1")
	.dwattr $C$DW$400, DW_AT_TI_call
           CALL    .S1     _Send_Recive_Packet__FUiPvT2T1 ; |622| 
           LDW     .D2T1   *+SP(440),A4      ; |622| 
           MVK     .S2     376,B4            ; |622| 
           ADD     .L2     B4,SP,B5          ; |622| 
           MVK     .S2     0x40,B6           ; |622| 

           MV      .L1X    B5,A6             ; |622| 
||         ADDAD   .D2     SP,21,B4          ; |622| 
||         ADDKPC  .S2     $C$RL38,B3,0      ; |622| 

$C$RL38:   ; CALL OCCURS {_Send_Recive_Packet__FUiPvT2T1} {0}  ; |622| 
           STW     .D2T1   A4,*+SP(8)        ; |622| 
	.dwpsn	file "test_c.cpp",line 623,column 2,is_stmt
;----------------------------------------------------------------------
; 623 | res = TPO_ERR;                                                         
;----------------------------------------------------------------------
$C$DW$401	.dwtag  DW_TAG_TI_branch
	.dwattr $C$DW$401, DW_AT_low_pc(0x00)
	.dwattr $C$DW$401, DW_AT_name("_memcmp")
	.dwattr $C$DW$401, DW_AT_TI_call
           CALL    .S1     _memcmp           ; |623| 
           MVK     .S1     376,A3            ; |623| 
           ADDAD   .D2     SP,21,B4          ; |623| 
           ADDKPC  .S2     $C$RL39,B3,1      ; |623| 

           MVK     .S1     0x40,A6           ; |623| 
||         MV      .L1X    B4,A4             ; |623| 
||         ADD     .L2X    A3,SP,B4          ; |623| 

$C$RL39:   ; CALL OCCURS {_memcmp} {0}       ; |623| 
           LDW     .D2T2   *+SP(8),B4        ; |623| 
           NOP             4
           CMPEQ   .L2     B4,1,B4           ; |623| 
           NOP             1
           OR      .L1X    A4,B4,A0          ; |623| 
   [!A0]   BNOP    .S1     $C$L52,5          ; |623| 
           ; BRANCHCC OCCURS {$C$L52}        ; |623| 
;** --------------------------------------------------------------------------*
	.dwpsn	file "test_c.cpp",line 624,column 3,is_stmt
;----------------------------------------------------------------------
; 624 | goto end_tst_sk;                                                       
;----------------------------------------------------------------------
           LDW     .D2T2   *+SP(4),B4        ; |624| 
           NOP             4
           SET     .S2     B4,4,4,B4         ; |624| 
           STW     .D2T2   B4,*+SP(4)        ; |624| 
;** --------------------------------------------------------------------------*
$C$L52:    
	.dwpsn	file "test_c.cpp",line 627,column 1,is_stmt
;----------------------------------------------------------------------
; 627 | sleep_m(100);//1000                                                    
;----------------------------------------------------------------------
           ZERO    .L2     B4                ; |627| 
           STW     .D2T2   B4,*+SP(448)      ; |627| 
	.dwpsn	file "test_c.cpp",line 628,column 1,is_stmt
           LDW     .D2T2   *+SP(452),B4      ; |628| 
           MVK     .S1     16384,A3          ; |628| 
           NOP             3
           XOR     .L1X    A3,B4,A3          ; |628| 
           STW     .D2T1   A3,*+SP(452)      ; |628| 
	.dwpsn	file "test_c.cpp",line 629,column 1,is_stmt
;----------------------------------------------------------------------
; 629 | error = Send_Recive_Packet(FileNet, buf_big_wr, buf_big_rd, LEN_BUF1_FO
;     | R_TEST_SK);                                                            
;----------------------------------------------------------------------

           MV      .L2X    A3,B4
||         MVK     .S2     8448,B5           ; |629| 

           OR      .L2     B5,B4,B4          ; |629| 
           STW     .D2T2   B4,*+SP(452)      ; |629| 
	.dwpsn	file "test_c.cpp",line 630,column 1,is_stmt
;----------------------------------------------------------------------
; 630 | if((error == TPO_ERR) | (memcmp(buf_big_wr, buf_big_rd, LEN_BUF1_FOR_TE
;     | ST_SK)))                                                               
;----------------------------------------------------------------------
           MVKL    .S1     ___syscall_tab+284,A3
           MVKH    .S1     ___syscall_tab+284,A3
           LDW     .D1T1   *A3,A3            ; |630| 
           LDW     .D2T1   *+SP(440),A4      ; |630| 
           MVK     .S2     444,B4            ; |630| 
           ADD     .L2     B4,SP,B5          ; |630| 
           MVK     .S2     0x1111,B4         ; |630| 
$C$DW$402	.dwtag  DW_TAG_TI_branch
	.dwattr $C$DW$402, DW_AT_low_pc(0x00)
	.dwattr $C$DW$402, DW_AT_TI_call
	.dwattr $C$DW$402, DW_AT_TI_indirect
           CALL    .S2X    A3                ; |630| 
           ADDKPC  .S2     $C$RL40,B3,3      ; |630| 
           MV      .L1X    B5,A6             ; |630| 
$C$RL40:   ; CALL OCCURS {A3} {0}            ; |630| 
           STW     .D2T1   A4,*+SP(8)        ; |630| 
	.dwpsn	file "test_c.cpp",line 631,column 2,is_stmt
;----------------------------------------------------------------------
; 631 | res|=ERR_LOOP_LXT;                                                     
;----------------------------------------------------------------------
           MV      .L2X    A4,B0
   [!B0]   BNOP    .S1     $C$L53,5          ; |631| 
           ; BRANCHCC OCCURS {$C$L53}        ; |631| 
;** --------------------------------------------------------------------------*
	.dwpsn	file "test_c.cpp",line 633,column 3,is_stmt
;----------------------------------------------------------------------
; 633 | error = Send_Recive_Packet(FileNet, buf_small_wr, buf_small_rd, LEN_BUF
;     | 2_FOR_TEST_SK);                                                        
;----------------------------------------------------------------------
           MVK     .L2     1,B4              ; |633| 
           STW     .D2T2   B4,*+SP(4)        ; |633| 
	.dwpsn	file "test_c.cpp",line 634,column 3,is_stmt
;----------------------------------------------------------------------
; 634 | if((error == TPO_ERR) | (memcmp(buf_small_wr, buf_small_rd, LEN_BUF2_FO
;     | R_TEST_SK)))                                                           
; 635 |         res|=ERR_LOOP_LXT;                                             
; 638 | phy_reg.reg = PHYREG_CONTROL;                                          
;----------------------------------------------------------------------
           BNOP    .S1     $C$L57,5          ; |634| 
           ; BRANCH OCCURS {$C$L57}          ; |634| 
;** --------------------------------------------------------------------------*
$C$L53:    
	.dwpsn	file "test_c.cpp",line 639,column 1,is_stmt
;----------------------------------------------------------------------
; 639 | phy_reg.value ^= PHYREG_CONTROL_LOOPBACK;       // loopback     
;----------------------------------------------------------------------
$C$DW$403	.dwtag  DW_TAG_TI_branch
	.dwattr $C$DW$403, DW_AT_low_pc(0x00)
	.dwattr $C$DW$403, DW_AT_name("_memset")
	.dwattr $C$DW$403, DW_AT_TI_call
           CALL    .S1     _memset           ; |639| 
           ADDAD   .D2     SP,29,B4          ; |639| 
           ADDKPC  .S2     $C$RL41,B3,2      ; |639| 

           MVK     .S1     0x8c,A6           ; |639| 
||         MV      .L1X    B4,A4             ; |639| 
||         ZERO    .L2     B4                ; |639| 

$C$RL41:   ; CALL OCCURS {_memset} {0}       ; |639| 
	.dwpsn	file "test_c.cpp",line 640,column 1,is_stmt
;----------------------------------------------------------------------
; 640 | phy_reg.value |= (PHYREG_CONTROL_SPEED100 | PHYREG_CONTROL_DUPLEXFULL);
;     |                                                                        
; 641 | error = drv_ioctl(FileNet, NET_WRITE_REG, &phy_reg);                   
; 642 | if(error != OSE_OK)                                                    
;----------------------------------------------------------------------
$C$DW$404	.dwtag  DW_TAG_TI_branch
	.dwattr $C$DW$404, DW_AT_low_pc(0x00)
	.dwattr $C$DW$404, DW_AT_name("_memset")
	.dwattr $C$DW$404, DW_AT_TI_call
           CALL    .S1     _memset           ; |640| 
           MVK     .S1     376,A3            ; |640| 
           ADD     .L1X    A3,SP,A4          ; |640| 
           ADDKPC  .S2     $C$RL42,B3,1      ; |640| 

           ZERO    .L2     B4                ; |640| 
||         MVK     .S1     0x40,A6           ; |640| 

$C$RL42:   ; CALL OCCURS {_memset} {0}       ; |640| 
	.dwpsn	file "test_c.cpp",line 644,column 1,is_stmt
;----------------------------------------------------------------------
; 644 | res = TPO_ERR;                                                         
; 645 | goto end_tst_sk;                                                       
;----------------------------------------------------------------------
           MVKL    .S2     ___syscall_tab+252,B4
           MVKH    .S2     ___syscall_tab+252,B4
           LDW     .D2T2   *B4,B4            ; |644| 
           MVK     .S1     0x1f4,A4          ; |644| 
           NOP             3
$C$DW$405	.dwtag  DW_TAG_TI_branch
	.dwattr $C$DW$405, DW_AT_low_pc(0x00)
	.dwattr $C$DW$405, DW_AT_TI_call
	.dwattr $C$DW$405, DW_AT_TI_indirect
           CALL    .S2     B4                ; |644| 
           ADDKPC  .S2     $C$RL43,B3,4      ; |644| 
$C$RL43:   ; CALL OCCURS {B4} {0}            ; |644| 
	.dwpsn	file "test_c.cpp",line 646,column 1,is_stmt
           MVKL    .S1     ___syscall_tab+284,A3
           MVKH    .S1     ___syscall_tab+284,A3
           LDW     .D1T1   *A3,A3            ; |646| 
           LDW     .D2T1   *+SP(440),A4      ; |646| 
           ADD     .D2     SP,20,B4          ; |646| 
           NOP             2
$C$DW$406	.dwtag  DW_TAG_TI_branch
	.dwattr $C$DW$406, DW_AT_low_pc(0x00)
	.dwattr $C$DW$406, DW_AT_TI_call
	.dwattr $C$DW$406, DW_AT_TI_indirect
           CALL    .S2X    A3                ; |646| 
           MV      .L1X    B4,A6             ; |646| 
           MVK     .S2     0x110f,B4         ; |646| 
           ADDKPC  .S2     $C$RL44,B3,2      ; |646| 
$C$RL44:   ; CALL OCCURS {A3} {0}            ; |646| 
           STW     .D2T1   A4,*+SP(8)        ; |646| 
	.dwpsn	file "test_c.cpp",line 647,column 2,is_stmt
           MV      .L2X    A4,B0
   [!B0]   BNOP    .S1     $C$L54,5          ; |647| 
           ; BRANCHCC OCCURS {$C$L54}        ; |647| 
;** --------------------------------------------------------------------------*
	.dwpsn	file "test_c.cpp",line 649,column 3,is_stmt
           MVK     .L2     1,B4              ; |649| 
           STW     .D2T2   B4,*+SP(4)        ; |649| 
	.dwpsn	file "test_c.cpp",line 650,column 3,is_stmt
;----------------------------------------------------------------------
; 650 | memset(buf_big_rd, 0, LEN_BUF1_FOR_TEST_SK);                           
; 651 | memset(buf_small_rd, 0, LEN_BUF2_FOR_TEST_SK);                         
; 652 | //#else                                                                
;----------------------------------------------------------------------
           BNOP    .S1     $C$L57,5          ; |650| 
           ; BRANCH OCCURS {$C$L57}          ; |650| 
;** --------------------------------------------------------------------------*
$C$L54:    
	.dwpsn	file "test_c.cpp",line 653,column 1,is_stmt
;----------------------------------------------------------------------
; 653 | #endif                                                                 
;----------------------------------------------------------------------
           LDB     .D2T2   *+SP(20),B0       ; |653| 
           NOP             4
   [!B0]   BNOP    .S1     $C$L56,5          ; |653| 
           ; BRANCHCC OCCURS {$C$L56}        ; |653| 
;** --------------------------------------------------------------------------*
	.dwpsn	file "test_c.cpp",line 655,column 1,is_stmt
;----------------------------------------------------------------------
; 655 | sleep_m(500);//1500                                                    
;----------------------------------------------------------------------
$C$DW$407	.dwtag  DW_TAG_TI_branch
	.dwattr $C$DW$407, DW_AT_low_pc(0x00)
	.dwattr $C$DW$407, DW_AT_name("_Send_Recive_Packet__FUiPvT2T1")
	.dwattr $C$DW$407, DW_AT_TI_call
           CALL    .S1     _Send_Recive_Packet__FUiPvT2T1 ; |655| 
           LDW     .D2T1   *+SP(440),A4      ; |655| 
           ADDAD   .D2     SP,29,B5          ; |655| 
           MVK     .S2     0x8c,B6           ; |655| 
           MV      .L1X    B5,A6             ; |655| 

           ADDKPC  .S2     $C$RL45,B3,0      ; |655| 
||         ADD     .D2     SP,24,B4          ; |655| 

$C$RL45:   ; CALL OCCURS {_Send_Recive_Packet__FUiPvT2T1} {0}  ; |655| 
           STW     .D2T1   A4,*+SP(8)        ; |655| 
	.dwpsn	file "test_c.cpp",line 656,column 2,is_stmt
$C$DW$408	.dwtag  DW_TAG_TI_branch
	.dwattr $C$DW$408, DW_AT_low_pc(0x00)
	.dwattr $C$DW$408, DW_AT_name("_memcmp")
	.dwattr $C$DW$408, DW_AT_TI_call
           CALL    .S1     _memcmp           ; |656| 
           ADD     .D2     SP,24,B4          ; |656| 
           ADDKPC  .S2     $C$RL46,B3,2      ; |656| 

           MVK     .S1     0x8c,A6           ; |656| 
||         MV      .L1X    B4,A4             ; |656| 
||         ADDAD   .D2     SP,29,B4          ; |656| 

$C$RL46:   ; CALL OCCURS {_memcmp} {0}       ; |656| 
           LDW     .D2T2   *+SP(8),B4        ; |656| 
           NOP             4
           CMPEQ   .L2     B4,1,B4           ; |656| 
           NOP             1
           OR      .L1X    A4,B4,A0          ; |656| 
   [!A0]   BNOP    .S1     $C$L55,5          ; |656| 
           ; BRANCHCC OCCURS {$C$L55}        ; |656| 
;** --------------------------------------------------------------------------*
	.dwpsn	file "test_c.cpp",line 657,column 3,is_stmt
;----------------------------------------------------------------------
; 657 | error = drv_ioctl(FileNet, NET_LINK, &link);                           
; 658 | if(error != OSE_OK)                                                    
;----------------------------------------------------------------------
           LDW     .D2T2   *+SP(4),B4        ; |657| 
           NOP             4
           SET     .S2     B4,5,5,B4         ; |657| 
           STW     .D2T2   B4,*+SP(4)        ; |657| 
;** --------------------------------------------------------------------------*
$C$L55:    
	.dwpsn	file "test_c.cpp",line 659,column 1,is_stmt
$C$DW$409	.dwtag  DW_TAG_TI_branch
	.dwattr $C$DW$409, DW_AT_low_pc(0x00)
	.dwattr $C$DW$409, DW_AT_name("_Send_Recive_Packet__FUiPvT2T1")
	.dwattr $C$DW$409, DW_AT_TI_call
           CALL    .S1     _Send_Recive_Packet__FUiPvT2T1 ; |659| 
           LDW     .D2T1   *+SP(440),A4      ; |659| 
           MVK     .S2     376,B4            ; |659| 
           ADD     .L2     B4,SP,B5          ; |659| 
           MVK     .S2     0x40,B6           ; |659| 

           MV      .L1X    B5,A6             ; |659| 
||         ADDAD   .D2     SP,21,B4          ; |659| 
||         ADDKPC  .S2     $C$RL47,B3,0      ; |659| 

$C$RL47:   ; CALL OCCURS {_Send_Recive_Packet__FUiPvT2T1} {0}  ; |659| 
           STW     .D2T1   A4,*+SP(8)        ; |659| 
	.dwpsn	file "test_c.cpp",line 660,column 2,is_stmt
;----------------------------------------------------------------------
; 660 | res = TPO_ERR;                                                         
;----------------------------------------------------------------------
$C$DW$410	.dwtag  DW_TAG_TI_branch
	.dwattr $C$DW$410, DW_AT_low_pc(0x00)
	.dwattr $C$DW$410, DW_AT_name("_memcmp")
	.dwattr $C$DW$410, DW_AT_TI_call
           CALL    .S1     _memcmp           ; |660| 
           MVK     .S1     376,A3            ; |660| 
           ADDAD   .D2     SP,21,B4          ; |660| 
           ADDKPC  .S2     $C$RL48,B3,1      ; |660| 

           MVK     .S1     0x40,A6           ; |660| 
||         MV      .L1X    B4,A4             ; |660| 
||         ADD     .L2X    A3,SP,B4          ; |660| 

$C$RL48:   ; CALL OCCURS {_memcmp} {0}       ; |660| 
           LDW     .D2T2   *+SP(8),B4        ; |660| 
           NOP             4
           CMPEQ   .L2     B4,1,B4           ; |660| 
           NOP             1
           OR      .L1X    A4,B4,A0          ; |660| 
   [!A0]   BNOP    .S1     $C$L57,5          ; |660| 
           ; BRANCHCC OCCURS {$C$L57}        ; |660| 
;** --------------------------------------------------------------------------*
	.dwpsn	file "test_c.cpp",line 661,column 3,is_stmt
;----------------------------------------------------------------------
; 661 | goto end_tst_sk;                                                       
;----------------------------------------------------------------------
           LDW     .D2T2   *+SP(4),B4        ; |661| 
           NOP             4
           SET     .S2     B4,5,5,B4         ; |661| 
           STW     .D2T2   B4,*+SP(4)        ; |661| 
	.dwpsn	file "test_c.cpp",line 662,column 1,is_stmt
           BNOP    .S1     $C$L57,5          ; |662| 
           ; BRANCH OCCURS {$C$L57}          ; |662| 
;** --------------------------------------------------------------------------*
$C$L56:    
	.dwpsn	file "test_c.cpp",line 664,column 1,is_stmt
;----------------------------------------------------------------------
; 664 | if(link)                                                               
; 666 | error = Send_Recive_Packet(FileNet, buf_big_wr, buf_big_rd, LEN_BUF1_FO
;     | R_TEST_SK);                                                            
; 667 | if((error == TPO_ERR) | (memcmp(buf_big_wr, buf_big_rd, LEN_BUF1_FOR_TE
;     | ST_SK)))                                                               
;----------------------------------------------------------------------
           LDW     .D2T2   *+SP(4),B4        ; |664| 
           NOP             4
           SET     .S2     B4,5,5,B4         ; |664| 
           STW     .D2T2   B4,*+SP(4)        ; |664| 
;** --------------------------------------------------------------------------*
$C$L57:    
	.dwpsn	file "test_c.cpp",line 668,column 1,is_stmt
;----------------------------------------------------------------------
; 668 | res|=ERR_LOOP_PHY;                                                     
;----------------------------------------------------------------------
           MVKL    .S1     ___syscall_tab+296,A3
           MVKH    .S1     ___syscall_tab+296,A3
           LDW     .D1T1   *A3,A3            ; |668| 
           LDW     .D2T1   *+SP(440),A4      ; |668| 
           NOP             3
$C$DW$411	.dwtag  DW_TAG_TI_branch
	.dwattr $C$DW$411, DW_AT_low_pc(0x00)
	.dwattr $C$DW$411, DW_AT_TI_call
	.dwattr $C$DW$411, DW_AT_TI_indirect
           CALL    .S2X    A3                ; |668| 
           ADDKPC  .S2     $C$RL49,B3,4      ; |668| 
$C$RL49:   ; CALL OCCURS {A3} {0}            ; |668| 
	.dwpsn	file "test_c.cpp",line 670,column 1,is_stmt
;----------------------------------------------------------------------
; 670 | error = Send_Recive_Packet(FileNet, buf_small_wr, buf_small_rd, LEN_BUF
;     | 2_FOR_TEST_SK);                                                        
;----------------------------------------------------------------------
           LDW     .D2T1   *+SP(4),A4        ; |670| 
;** --------------------------------------------------------------------------*
$C$L58:    
	.dwpsn	file "test_c.cpp",line 671,column 1,is_stmt
;----------------------------------------------------------------------
; 671 | if((error == TPO_ERR) | (memcmp(buf_small_wr, buf_small_rd, LEN_BUF2_FO
;     | R_TEST_SK)))                                                           
;----------------------------------------------------------------------
           LDW     .D2T2   *+SP(456),B3      ; |671| 
           NOP             4
	.dwcfi	restore_reg, 19
           ADDK    .S2     456,SP            ; |671| 
	.dwcfi	cfa_offset, 0
	.dwcfi	cfa_offset, 0
$C$DW$412	.dwtag  DW_TAG_TI_branch
	.dwattr $C$DW$412, DW_AT_low_pc(0x00)
	.dwattr $C$DW$412, DW_AT_TI_return
           RETNOP  .S2     B3,5              ; |671| 
           ; BRANCH OCCURS {B3}              ; |671| 
	.dwattr $C$DW$375, DW_AT_TI_end_file("test_c.cpp")
	.dwattr $C$DW$375, DW_AT_TI_end_line(0x29f)
	.dwattr $C$DW$375, DW_AT_TI_end_column(0x01)
	.dwendentry
	.dwendtag $C$DW$375

	.sect	".text"
	.clink
	.global	_Start_Test_N__FP12kdg_rez_test

$C$DW$413	.dwtag  DW_TAG_subprogram, DW_AT_name("Start_Test_N")
	.dwattr $C$DW$413, DW_AT_low_pc(_Start_Test_N__FP12kdg_rez_test)
	.dwattr $C$DW$413, DW_AT_high_pc(0x00)
	.dwattr $C$DW$413, DW_AT_TI_symbol_name("_Start_Test_N__FP12kdg_rez_test")
	.dwattr $C$DW$413, DW_AT_external
	.dwattr $C$DW$413, DW_AT_TI_begin_file("test_c.cpp")
	.dwattr $C$DW$413, DW_AT_TI_begin_line(0x2a3)
	.dwattr $C$DW$413, DW_AT_TI_begin_column(0x06)
	.dwpsn	file "test_c.cpp",line 676,column 1,is_stmt,address _Start_Test_N__FP12kdg_rez_test

	.dwfde $C$DW$CIE, _Start_Test_N__FP12kdg_rez_test
$C$DW$414	.dwtag  DW_TAG_formal_parameter, DW_AT_name("result")
	.dwattr $C$DW$414, DW_AT_TI_symbol_name("_result")
	.dwattr $C$DW$414, DW_AT_type(*$C$DW$T$696)
	.dwattr $C$DW$414, DW_AT_location[DW_OP_reg4]
;----------------------------------------------------------------------
; 675 | res|=ERR_LOOP_PHY;                                                     
;----------------------------------------------------------------------

;******************************************************************************
;* FUNCTION NAME: Start_Test_N(kdg_rez_test *)                                *
;*                                                                            *
;*   Regs Modified     : A0,A1,A2,A3,A4,A5,A6,A7,A8,A9,B0,B1,B2,B3,B4,B5,B6,  *
;*                           B7,B8,B9,SP,A16,A17,A18,A19,A20,A21,A22,A23,A24, *
;*                           A25,A26,A27,A28,A29,A30,A31,B16,B17,B18,B19,B20, *
;*                           B21,B22,B23,B24,B25,B26,B27,B28,B29,B30,B31      *
;*   Regs Used         : A0,A1,A2,A3,A4,A5,A6,A7,A8,A9,B0,B1,B2,B3,B4,B5,B6,  *
;*                           B7,B8,B9,SP,A16,A17,A18,A19,A20,A21,A22,A23,A24, *
;*                           A25,A26,A27,A28,A29,A30,A31,B16,B17,B18,B19,B20, *
;*                           B21,B22,B23,B24,B25,B26,B27,B28,B29,B30,B31      *
;*   Local Frame Size  : 0 Args + 4 Auto + 4 Save = 8 byte                    *
;******************************************************************************
_Start_Test_N__FP12kdg_rez_test:
;** --------------------------------------------------------------------------*
	.dwcfi	cfa_offset, 0
	.dwcfi	save_reg_to_reg, 228, 19
           STW     .D2T2   B3,*SP--(8)       ; |676| 
	.dwcfi	cfa_offset, 8
	.dwcfi	save_reg_to_mem, 19, 0
$C$DW$415	.dwtag  DW_TAG_variable, DW_AT_name("result")
	.dwattr $C$DW$415, DW_AT_TI_symbol_name("_result")
	.dwattr $C$DW$415, DW_AT_type(*$C$DW$T$696)
	.dwattr $C$DW$415, DW_AT_location[DW_OP_breg31 4]
;----------------------------------------------------------------------
; 677 | end_tst_sk:                                                            
; 679 | drv_rmd(FileNet);                                                      
;----------------------------------------------------------------------
           STW     .D2T1   A4,*+SP(4)        ; |676| 
	.dwpsn	file "test_c.cpp",line 680,column 5,is_stmt
;----------------------------------------------------------------------
; 681 | return res;                                                            
;----------------------------------------------------------------------
           BNOP    .S1     $C$L65,5          ; |680| 
           ; BRANCH OCCURS {$C$L65}          ; |680| 
;** --------------------------------------------------------------------------*
;** --------------------------------------------------------------------------*
$C$L59:    
	.dwpsn	file "test_c.cpp",line 684,column 3,is_stmt
;----------------------------------------------------------------------
; 685 | //---------------------------------------------------------------------
;     | -------                                                                
;----------------------------------------------------------------------
$C$DW$416	.dwtag  DW_TAG_TI_branch
	.dwattr $C$DW$416, DW_AT_low_pc(0x00)
	.dwattr $C$DW$416, DW_AT_name("_TestCelostnost__Fv")
	.dwattr $C$DW$416, DW_AT_TI_call
           CALL    .S1     _TestCelostnost__Fv ; |684| 
           ADDKPC  .S2     $C$RL50,B3,4      ; |684| 
$C$RL50:   ; CALL OCCURS {_TestCelostnost__Fv} {0}  ; |684| 
           LDW     .D2T2   *+SP(4),B4        ; |684| 
           NOP             4
           STW     .D2T1   A4,*+B4(8)        ; |684| 
	.dwpsn	file "test_c.cpp",line 686,column 12,is_stmt
;----------------------------------------------------------------------
; 686 | void Start_Test_N(kdg_rez_test* result)                                
;----------------------------------------------------------------------
           BNOP    .S1     $C$L66,5          ; |686| 
           ; BRANCH OCCURS {$C$L66}          ; |686| 
;** --------------------------------------------------------------------------*
$C$L60:    
	.dwpsn	file "test_c.cpp",line 690,column 3,is_stmt
;----------------------------------------------------------------------
; 691 | switch (result->n_test)                                                
;----------------------------------------------------------------------
$C$DW$417	.dwtag  DW_TAG_TI_branch
	.dwattr $C$DW$417, DW_AT_low_pc(0x00)
	.dwattr $C$DW$417, DW_AT_name("_TestDozu__FP12kdg_rez_test")
	.dwattr $C$DW$417, DW_AT_TI_call
           CALL    .S1     _TestDozu__FP12kdg_rez_test ; |690| 
           ADDKPC  .S2     $C$RL51,B3,4      ; |690| 
$C$RL51:   ; CALL OCCURS {_TestDozu__FP12kdg_rez_test} {0}  ; |690| 
           LDW     .D2T2   *+SP(4),B4        ; |690| 
           NOP             4
           STW     .D2T1   A4,*+B4(8)        ; |690| 
	.dwpsn	file "test_c.cpp",line 692,column 12,is_stmt
;----------------------------------------------------------------------
; 693 | case CELOSTN:                                                          
; 695 |           result->rez = TestCelostnost();                              
;----------------------------------------------------------------------
           BNOP    .S1     $C$L66,5          ; |692| 
           ; BRANCH OCCURS {$C$L66}          ; |692| 
;** --------------------------------------------------------------------------*
$C$L61:    
	.dwpsn	file "test_c.cpp",line 696,column 3,is_stmt
;----------------------------------------------------------------------
; 697 | break;                                                                 
;----------------------------------------------------------------------
$C$DW$418	.dwtag  DW_TAG_TI_branch
	.dwattr $C$DW$418, DW_AT_low_pc(0x00)
	.dwattr $C$DW$418, DW_AT_name("_TestMove__Fv")
	.dwattr $C$DW$418, DW_AT_TI_call
           CALL    .S1     _TestMove__Fv     ; |696| 
           ADDKPC  .S2     $C$RL52,B3,4      ; |696| 
$C$RL52:   ; CALL OCCURS {_TestMove__Fv} {0}  ; |696| 
           LDW     .D2T2   *+SP(4),B4        ; |696| 
           NOP             4
           STW     .D2T1   A4,*+B4(8)        ; |696| 
	.dwpsn	file "test_c.cpp",line 698,column 12,is_stmt
;----------------------------------------------------------------------
; 699 | case TEST_DOZU:           //                                     
; 700 |  main                                                                
;----------------------------------------------------------------------
           BNOP    .S1     $C$L66,5          ; |698| 
           ; BRANCH OCCURS {$C$L66}          ; |698| 
;** --------------------------------------------------------------------------*
$C$L62:    
	.dwpsn	file "test_c.cpp",line 702,column 3,is_stmt
;----------------------------------------------------------------------
; 702 | result->rez = TestDozu(result);                                        
;----------------------------------------------------------------------
$C$DW$419	.dwtag  DW_TAG_TI_branch
	.dwattr $C$DW$419, DW_AT_low_pc(0x00)
	.dwattr $C$DW$419, DW_AT_name("_TestMove_ST1__FP12kdg_rez_test")
	.dwattr $C$DW$419, DW_AT_TI_call
           CALL    .S1     _TestMove_ST1__FP12kdg_rez_test ; |702| 
           ADDKPC  .S2     $C$RL53,B3,4      ; |702| 
$C$RL53:   ; CALL OCCURS {_TestMove_ST1__FP12kdg_rez_test} {0}  ; |702| 
           LDW     .D2T2   *+SP(4),B4        ; |702| 
           NOP             4
           STW     .D2T1   A4,*+B4(8)        ; |702| 
	.dwpsn	file "test_c.cpp",line 704,column 12,is_stmt
;----------------------------------------------------------------------
; 704 | break;                                                                 
; 706 | case TEST_MOVE:           //                                     
; 707 |  main                                                                
;----------------------------------------------------------------------
           BNOP    .S1     $C$L66,5          ; |704| 
           ; BRANCH OCCURS {$C$L66}          ; |704| 
;** --------------------------------------------------------------------------*
$C$L63:    
	.dwpsn	file "test_c.cpp",line 708,column 3,is_stmt
;----------------------------------------------------------------------
; 709 | result->rez = TestMove();                                              
;----------------------------------------------------------------------
$C$DW$420	.dwtag  DW_TAG_TI_branch
	.dwattr $C$DW$420, DW_AT_low_pc(0x00)
	.dwattr $C$DW$420, DW_AT_name("_Test_SK__Fv")
	.dwattr $C$DW$420, DW_AT_TI_call
           CALL    .S1     _Test_SK__Fv      ; |708| 
           ADDKPC  .S2     $C$RL54,B3,4      ; |708| 
$C$RL54:   ; CALL OCCURS {_Test_SK__Fv} {0}  ; |708| 
           LDW     .D2T2   *+SP(4),B4        ; |708| 
           NOP             4
           STW     .D2T1   A4,*+B4(8)        ; |708| 
	.dwpsn	file "test_c.cpp",line 710,column 12,is_stmt
;----------------------------------------------------------------------
; 711 | break;                                                                 
; 713 | case TEST_MOVE_ST1:       //                                     
;----------------------------------------------------------------------
           BNOP    .S1     $C$L66,5          ; |710| 
           ; BRANCH OCCURS {$C$L66}          ; |710| 
;** --------------------------------------------------------------------------*
$C$L64:    
	.dwpsn	file "test_c.cpp",line 714,column 7,is_stmt
;----------------------------------------------------------------------
; 714 |  main                                                                
; 716 | result->rez = TestMove_ST1(result);                                    
;----------------------------------------------------------------------

           MV      .L2X    A4,B4
||         MVK     .S2     1,B5              ; |714| 

           STW     .D2T2   B5,*+B4(8)        ; |714| 
	.dwpsn	file "test_c.cpp",line 717,column 7,is_stmt
;----------------------------------------------------------------------
; 718 | break;                                                                 
; 720 | case TEST_SK:                                                          
;----------------------------------------------------------------------
           BNOP    .S1     $C$L66,5          ; |717| 
           ; BRANCH OCCURS {$C$L66}          ; |717| 
;** --------------------------------------------------------------------------*
$C$L65:    
	.dwpsn	file "test_c.cpp",line 680,column 5,is_stmt
           MV      .L2X    A4,B4
           LDW     .D2T2   *+B4(4),B4        ; |680| 
           MVK     .S1     21,A3             ; |680| 
           MVK     .S2     32,B5             ; |680| 
           NOP             2
           CMPEQ   .L1X    B4,A3,A0          ; |680| 
   [ A0]   BNOP    .S1     $C$L59,3          ; |680| 
           SUB     .L2     B4,B5,B5          ; |680| 
           CMPGTU  .L2     B5,8,B0           ; |680| 
           ; BRANCHCC OCCURS {$C$L59}        ; |680| 
;** --------------------------------------------------------------------------*
   [ B0]   BNOP    .S1     $C$L64,5          ; |680| 
           ; BRANCHCC OCCURS {$C$L64} {-5}   ; |680| 
;** --------------------------------------------------------------------------*
           SHL     .S2     B4,2,B4           ; |680| 

           ADDK    .S2     -128,B4           ; |680| 
||         MVKL    .S1     $C$SW1,A3

           MVKH    .S1     $C$SW1,A3
           ADD     .L1X    A3,B4,A3          ; |680| 
           LDW     .D1T1   *A3,A3            ; |680| 
           NOP             4
           BNOP    .S2X    A3,5              ; |680| 
           ; BRANCH OCCURS {A3}              ; |680| 
	.sect	".switch"
	.clink
$C$SW1:	.word	$C$L60	; 32
	.word	$C$L64	; 0
	.word	$C$L64	; 0
	.word	$C$L64	; 0
	.word	$C$L61	; 36
	.word	$C$L62	; 37
	.word	$C$L64	; 0
	.word	$C$L64	; 0
	.word	$C$L63	; 40
	.sect	".text"
;** --------------------------------------------------------------------------*
;** --------------------------------------------------------------------------*
$C$L66:    
	.dwpsn	file "test_c.cpp",line 721,column 1,is_stmt
           LDW     .D2T2   *++SP(8),B3       ; |721| 
           NOP             4
	.dwcfi	cfa_offset, 0
	.dwcfi	restore_reg, 19
	.dwcfi	cfa_offset, 0
$C$DW$421	.dwtag  DW_TAG_TI_branch
	.dwattr $C$DW$421, DW_AT_low_pc(0x00)
	.dwattr $C$DW$421, DW_AT_TI_return
           RETNOP  .S2     B3,5              ; |721| 
           ; BRANCH OCCURS {B3}              ; |721| 
	.dwattr $C$DW$413, DW_AT_TI_end_file("test_c.cpp")
	.dwattr $C$DW$413, DW_AT_TI_end_line(0x2d1)
	.dwattr $C$DW$413, DW_AT_TI_end_column(0x01)
	.dwendentry
	.dwendtag $C$DW$413

	.sect	".text"
	.clink
	.global	_TestDOZU_Nagr__FPv

$C$DW$422	.dwtag  DW_TAG_subprogram, DW_AT_name("TestDOZU_Nagr")
	.dwattr $C$DW$422, DW_AT_low_pc(_TestDOZU_Nagr__FPv)
	.dwattr $C$DW$422, DW_AT_high_pc(0x00)
	.dwattr $C$DW$422, DW_AT_TI_symbol_name("_TestDOZU_Nagr__FPv")
	.dwattr $C$DW$422, DW_AT_external
	.dwattr $C$DW$422, DW_AT_type(*$C$DW$T$10)
	.dwattr $C$DW$422, DW_AT_TI_begin_file("test_c.cpp")
	.dwattr $C$DW$422, DW_AT_TI_begin_line(0x2d5)
	.dwattr $C$DW$422, DW_AT_TI_begin_column(0x05)
	.dwpsn	file "test_c.cpp",line 726,column 1,is_stmt,address _TestDOZU_Nagr__FPv

	.dwfde $C$DW$CIE, _TestDOZU_Nagr__FPv
$C$DW$423	.dwtag  DW_TAG_formal_parameter, DW_AT_name("arg")
	.dwattr $C$DW$423, DW_AT_TI_symbol_name("_arg")
	.dwattr $C$DW$423, DW_AT_type(*$C$DW$T$3)
	.dwattr $C$DW$423, DW_AT_location[DW_OP_reg4]

;******************************************************************************
;* FUNCTION NAME: TestDOZU_Nagr(void *)                                       *
;*                                                                            *
;*   Regs Modified     : A0,A1,A2,A3,A4,A5,A6,A7,A8,A9,B0,B1,B2,B3,B4,B5,B6,  *
;*                           B7,B8,B9,B10,B11,SP,A16,A17,A18,A19,A20,A21,A22, *
;*                           A23,A24,A25,A26,A27,A28,A29,A30,A31,B16,B17,B18, *
;*                           B19,B20,B21,B22,B23,B24,B25,B26,B27,B28,B29,B30, *
;*                           B31                                              *
;*   Regs Used         : A0,A1,A2,A3,A4,A5,A6,A7,A8,A9,B0,B1,B2,B3,B4,B5,B6,  *
;*                           B7,B8,B9,B10,B11,SP,A16,A17,A18,A19,A20,A21,A22, *
;*                           A23,A24,A25,A26,A27,A28,A29,A30,A31,B16,B17,B18, *
;*                           B19,B20,B21,B22,B23,B24,B25,B26,B27,B28,B29,B30, *
;*                           B31                                              *
;*   Local Frame Size  : 0 Args + 1556 Auto + 12 Save = 1568 byte             *
;******************************************************************************
_TestDOZU_Nagr__FPv:
;** --------------------------------------------------------------------------*
;----------------------------------------------------------------------
; 726 | default:                                                               
;----------------------------------------------------------------------
	.dwcfi	cfa_offset, 0
	.dwcfi	save_reg_to_reg, 228, 19
           ADDK    .S2     -1568,SP          ; |726| 
	.dwcfi	cfa_offset, 1568
           STW     .D2T2   B11,*+SP(1568)    ; |726| 
	.dwcfi	save_reg_to_mem, 27, 0
           STW     .D2T2   B10,*+SP(1564)    ; |726| 
	.dwcfi	save_reg_to_mem, 26, -4
           STW     .D2T2   B3,*+SP(1560)     ; |726| 
	.dwcfi	save_reg_to_mem, 19, -8
$C$DW$424	.dwtag  DW_TAG_variable, DW_AT_name("arg")
	.dwattr $C$DW$424, DW_AT_TI_symbol_name("_arg")
	.dwattr $C$DW$424, DW_AT_type(*$C$DW$T$3)
	.dwattr $C$DW$424, DW_AT_location[DW_OP_breg31 4]
$C$DW$425	.dwtag  DW_TAG_variable, DW_AT_name("error0")
	.dwattr $C$DW$425, DW_AT_TI_symbol_name("_error0")
	.dwattr $C$DW$425, DW_AT_type(*$C$DW$T$10)
	.dwattr $C$DW$425, DW_AT_location[DW_OP_breg31 8]
$C$DW$426	.dwtag  DW_TAG_variable, DW_AT_name("error1")
	.dwattr $C$DW$426, DW_AT_TI_symbol_name("_error1")
	.dwattr $C$DW$426, DW_AT_type(*$C$DW$T$10)
	.dwattr $C$DW$426, DW_AT_location[DW_OP_breg31 12]
$C$DW$427	.dwtag  DW_TAG_variable, DW_AT_name("buf0")
	.dwattr $C$DW$427, DW_AT_TI_symbol_name("_buf0")
	.dwattr $C$DW$427, DW_AT_type(*$C$DW$T$742)
	.dwattr $C$DW$427, DW_AT_location[DW_OP_breg31 16]
$C$DW$428	.dwtag  DW_TAG_variable, DW_AT_name("buf1")
	.dwattr $C$DW$428, DW_AT_TI_symbol_name("_buf1")
	.dwattr $C$DW$428, DW_AT_type(*$C$DW$T$742)
	.dwattr $C$DW$428, DW_AT_location[DW_OP_breg31 784]
$C$DW$429	.dwtag  DW_TAG_variable, DW_AT_name("X")
	.dwattr $C$DW$429, DW_AT_TI_symbol_name("_X")
	.dwattr $C$DW$429, DW_AT_type(*$C$DW$T$47)
	.dwattr $C$DW$429, DW_AT_location[DW_OP_breg31 1552]
$C$DW$430	.dwtag  DW_TAG_label, DW_AT_name("end_dozu_nagr"), DW_AT_low_pc($C$L77)
	.dwattr $C$DW$430, DW_AT_TI_symbol_name("_end_dozu_nagr")
;----------------------------------------------------------------------
; 728 | result->rez = TPO_ERR;                                                 
;----------------------------------------------------------------------
           STW     .D2T1   A4,*+SP(4)        ; |726| 
	.dwpsn	file "test_c.cpp",line 729,column 5,is_stmt
;----------------------------------------------------------------------
; 729 | //       cdg_error.ask = TPO_ERR;                                      
;----------------------------------------------------------------------
           ZERO    .L2     B4                ; |729| 
           STW     .D2T2   B4,*+SP(8)        ; |729| 
	.dwpsn	file "test_c.cpp",line 730,column 5,is_stmt
;----------------------------------------------------------------------
; 730 | //       msg_send(msg_desc->from, &cdg_error, sizeof(kdg_cmd_ask));    
; 731 | };                                                                     
; 734 | return;                                                                
;----------------------------------------------------------------------
           ZERO    .L1     A3                ; |730| 
           STW     .D2T1   A3,*+SP(12)       ; |730| 
	.dwpsn	file "test_c.cpp",line 735,column 8,is_stmt
           STW     .D2T2   B4,*+SP(1552)     ; |735| 
	.dwpsn	file "test_c.cpp",line 737,column 1,is_stmt
;----------------------------------------------------------------------
; 738 | // -                                                  
;----------------------------------------------------------------------
           MVKL    .S1     _sh_mem_write,A3
$C$DW$431	.dwtag  DW_TAG_TI_branch
	.dwattr $C$DW$431, DW_AT_low_pc(0x04)
	.dwattr $C$DW$431, DW_AT_name("_memset")
	.dwattr $C$DW$431, DW_AT_TI_call

           MVKH    .S1     _sh_mem_write,A3
||         CALL    .S2     _memset           ; |737| 

           LDW     .D1T1   *A3,A4            ; |737| 
           ADDKPC  .S2     $C$RL55,B3,2      ; |737| 
           MVK     .S1     0x300,A6          ; |737| 
$C$RL55:   ; CALL OCCURS {_memset} {0}       ; |737| 
	.dwpsn	file "test_c.cpp",line 739,column 1,is_stmt
;----------------------------------------------------------------------
; 739 | 5                                                                    
;----------------------------------------------------------------------
           MVKL    .S2     0x5a5a5a5a,B4
           MVKH    .S2     0x5a5a5a5a,B4
           STW     .D2T2   B4,*+SP(16)       ; |739| 
	.dwpsn	file "test_c.cpp",line 740,column 1,is_stmt
;----------------------------------------------------------------------
; 740 | int TestDOZU_Nagr(void* arg)                                           
;----------------------------------------------------------------------
$C$DW$432	.dwtag  DW_TAG_TI_branch
	.dwattr $C$DW$432, DW_AT_low_pc(0x00)
	.dwattr $C$DW$432, DW_AT_name("_WriteDARAM__FUsPvT1")
	.dwattr $C$DW$432, DW_AT_TI_call
           CALL    .S1     _WriteDARAM__FUsPvT1 ; |740| 
           ADDKPC  .S2     $C$RL56,B3,3      ; |740| 

           ADD     .D2     SP,16,B4          ; |740| 
||         ZERO    .L1     A4                ; |740| 
||         MVK     .S1     0x4,A6            ; |740| 

$C$RL56:   ; CALL OCCURS {_WriteDARAM__FUsPvT1} {0}  ; |740| 
	.dwpsn	file "test_c.cpp",line 742,column 1,is_stmt
;----------------------------------------------------------------------
; 742 | #define L 0x300/4                                                      
;----------------------------------------------------------------------
           ZERO    .L1     A3                ; |742| 
           STW     .D2T1   A3,*+SP(16)       ; |742| 
	.dwpsn	file "test_c.cpp",line 743,column 1,is_stmt
;----------------------------------------------------------------------
; 744 | int error0=0;                                                          
; 745 | int error1=0;                                                          
;----------------------------------------------------------------------
           MVKL    .S2     0x5a5a5a5a,B10

           ZERO    .L2     B4                ; |743| 
||         MVK     .S2     784,B11           ; |747| 

           STW     .D2T2   B4,*+SP(784)      ; |743| 
||         MVKH    .S2     0x5a5a5a5a,B10

;*----------------------------------------------------------------------------*
;*   SOFTWARE PIPELINE INFORMATION
;*      Disqualified loop: Software pipelining disabled
;*----------------------------------------------------------------------------*
$C$L67:    
$C$DW$L$_TestDOZU_Nagr__FPv$2$B:
	.dwpsn	file "test_c.cpp",line 746,column 1,is_stmt
$C$DW$433	.dwtag  DW_TAG_TI_branch
	.dwattr $C$DW$433, DW_AT_low_pc(0x00)
	.dwattr $C$DW$433, DW_AT_name("_ReadDARAM0__FUsPvT1")
	.dwattr $C$DW$433, DW_AT_TI_call
           CALL    .S1     _ReadDARAM0__FUsPvT1 ; |746| 
           ADDKPC  .S2     $C$RL57,B3,3      ; |746| 

           ZERO    .L1     A4                ; |746| 
||         ADD     .D2     SP,16,B4          ; |746| 
||         MVK     .S1     0x4,A6            ; |746| 

$C$RL57:   ; CALL OCCURS {_ReadDARAM0__FUsPvT1} {0}  ; |746| 
	.dwpsn	file "test_c.cpp",line 747,column 1,is_stmt
;----------------------------------------------------------------------
; 747 | uint32 buf0[L];                                                        
;----------------------------------------------------------------------
$C$DW$434	.dwtag  DW_TAG_TI_branch
	.dwattr $C$DW$434, DW_AT_low_pc(0x00)
	.dwattr $C$DW$434, DW_AT_name("_ReadDARAM1__FUsPvT1")
	.dwattr $C$DW$434, DW_AT_TI_call
           CALL    .S1     _ReadDARAM1__FUsPvT1 ; |747| 
           ADDKPC  .S2     $C$RL58,B3,3      ; |747| 

           ZERO    .L1     A4                ; |747| 
||         ADD     .L2     B11,SP,B4         ; |747| 
||         MVK     .S1     0x4,A6            ; |747| 

$C$RL58:   ; CALL OCCURS {_ReadDARAM1__FUsPvT1} {0}  ; |747| 
	.dwpsn	file "test_c.cpp",line 748,column 1,is_stmt
;----------------------------------------------------------------------
; 748 | uint32 buf1[L];                                                        
; 750 | uint32 X=0;                                                            
;----------------------------------------------------------------------
           LDW     .D2T2   *+SP(784),B4      ; |748| 
           LDW     .D2T1   *+SP(16),A3       ; |748| 
           NOP             3
           CMPEQ   .L2     B4,B10,B5         ; |748| 
           CMPEQ   .L2X    A3,B10,B4         ; |748| 
           AND     .L2     B4,B5,B0
   [!B0]   BNOP    .S1     $C$L67,5          ; |748| 
           ; BRANCHCC OCCURS {$C$L67}        ; |748| 
$C$DW$L$_TestDOZU_Nagr__FPv$2$E:
;** --------------------------------------------------------------------------*
	.dwpsn	file "test_c.cpp",line 752,column 1,is_stmt
;----------------------------------------------------------------------
; 752 | memset(sh_mem_write,0,L*4);                                            
;----------------------------------------------------------------------
           MVKL    .S1     _Start_dozu_nagr,A3
           MVKH    .S1     _Start_dozu_nagr,A3
           LDHU    .D1T1   *A3,A0            ; |752| 
           NOP             4
   [!A0]   BNOP    .S1     $C$L77,5          ; |752| 
           ; BRANCHCC OCCURS {$C$L77}        ; |752| 
;** --------------------------------------------------------------------------*
;**   BEGIN LOOP $C$L68
;** --------------------------------------------------------------------------*
$C$L68:    
$C$DW$L$_TestDOZU_Nagr__FPv$4$B:
	.dwpsn	file "test_c.cpp",line 754,column 3,is_stmt
;----------------------------------------------------------------------
; 754 | buf0[0] = 0x5a5a5a5a;                                                  
; 755 | WriteDARAM(0,buf0,4);                                                  
;----------------------------------------------------------------------
$C$DW$435	.dwtag  DW_TAG_TI_branch
	.dwattr $C$DW$435, DW_AT_low_pc(0x00)
	.dwattr $C$DW$435, DW_AT_name("_memset")
	.dwattr $C$DW$435, DW_AT_TI_call
           CALL    .S1     _memset           ; |754| 
           ADD     .D2     SP,16,B4          ; |754| 
           ADDKPC  .S2     $C$RL59,B3,2      ; |754| 

           MVK     .S1     0x300,A6          ; |754| 
||         MV      .L1X    B4,A4             ; |754| 
||         ZERO    .L2     B4                ; |754| 

$C$RL59:   ; CALL OCCURS {_memset} {0}       ; |754| 
	.dwpsn	file "test_c.cpp",line 756,column 3,is_stmt
;----------------------------------------------------------------------
; 757 | buf0[0] = 0;                                                           
;----------------------------------------------------------------------
           LDW     .D2T2   *+SP(1552),B4     ; |756| 
           NOP             4
           STW     .D2T2   B4,*+SP(20)       ; |756| 

$C$DW$436	.dwtag  DW_TAG_lexical_block, DW_AT_low_pc(0x00), DW_AT_high_pc(0x00)
$C$DW$437	.dwtag  DW_TAG_variable, DW_AT_name("i")
	.dwattr $C$DW$437, DW_AT_TI_symbol_name("_i")
	.dwattr $C$DW$437, DW_AT_type(*$C$DW$T$10)
	.dwattr $C$DW$437, DW_AT_location[DW_OP_breg31 1556]
	.dwpsn	file "test_c.cpp",line 758,column 12,is_stmt
;----------------------------------------------------------------------
; 758 | buf1[0] = 0;                                                           
;----------------------------------------------------------------------
           MVK     .L1     2,A3              ; |758| 
           STW     .D2T1   A3,*+SP(1556)     ; |758| 
	.dwpsn	file "test_c.cpp",line 758,column 16,is_stmt
;----------------------------------------------------------------------
; 759 | do                                                                     
;----------------------------------------------------------------------
           MVK     .S2     192,B5            ; |758| 
           CMPLT   .L2X    A3,B5,B0          ; |758| 
   [!B0]   BNOP    .S1     $C$L70,4          ; |758| 
           MV      .L2X    A3,B4
           ; BRANCHCC OCCURS {$C$L70}        ; |758| 
$C$DW$L$_TestDOZU_Nagr__FPv$4$E:
;*----------------------------------------------------------------------------*
;*   SOFTWARE PIPELINE INFORMATION
;*      Disqualified loop: Software pipelining disabled
;*----------------------------------------------------------------------------*
$C$L69:    
$C$DW$L$_TestDOZU_Nagr__FPv$5$B:
	.dwpsn	file "test_c.cpp",line 760,column 4,is_stmt
;----------------------------------------------------------------------
; 761 | ReadDARAM0(0,buf0,4);                                                  
; 762 | ReadDARAM1(0,buf1,4);                                                  
;----------------------------------------------------------------------
           SUB     .L2     B4,1,B4           ; |760| 
           ADDAW   .D2     SP,B4,B4          ; |760| 
           LDW     .D2T2   *+B4(16),B4       ; |760| 
           MVKL    .S2     0x66467329,B5
           MVKH    .S2     0x66467329,B5
           LDW     .D2T2   *+SP(1556),B6     ; |760| 
           MVKL    .S1     0xa6549873,A3
           MPYLH   .M2     B5,B4,B8          ; |760| 
           MPYLH   .M2     B4,B5,B7          ; |760| 
           MPYU    .M2     B5,B4,B5          ; |760| 
           ADD     .L2     B8,B7,B4          ; |760| 

           SHL     .S2     B4,16,B4          ; |760| 
||         MVKH    .S1     0xa6549873,A3

           ADD     .L2     B5,B4,B4          ; |760| 

           ADD     .L2X    A3,B4,B4          ; |760| 
||         ADDAW   .D2     SP,B6,B31         ; |760| 

           STW     .D2T2   B4,*+B31(16)      ; |760| 
	.dwpsn	file "test_c.cpp",line 758,column 20,is_stmt
           LDW     .D2T2   *+SP(1556),B4     ; |758| 
           NOP             4
           ADD     .L2     1,B4,B4           ; |758| 
           STW     .D2T2   B4,*+SP(1556)     ; |758| 
	.dwpsn	file "test_c.cpp",line 758,column 16,is_stmt
           MVK     .S2     192,B5            ; |758| 
           CMPLT   .L2     B4,B5,B0          ; |758| 
   [ B0]   BNOP    .S1     $C$L69,5          ; |758| 
           ; BRANCHCC OCCURS {$C$L69}        ; |758| 
$C$DW$L$_TestDOZU_Nagr__FPv$5$E:
;** --------------------------------------------------------------------------*
$C$L70:    
$C$DW$L$_TestDOZU_Nagr__FPv$6$B:
	.dwendtag $C$DW$436

	.dwpsn	file "test_c.cpp",line 763,column 3,is_stmt
$C$DW$438	.dwtag  DW_TAG_TI_branch
	.dwattr $C$DW$438, DW_AT_low_pc(0x00)
	.dwattr $C$DW$438, DW_AT_name("_WriteDARAM__FUsPvT1")
	.dwattr $C$DW$438, DW_AT_TI_call
           CALL    .S1     _WriteDARAM__FUsPvT1 ; |763| 
           ADDKPC  .S2     $C$RL60,B3,3      ; |763| 

           ADD     .D2     SP,16,B4          ; |763| 
||         MVK     .L1     0x4,A4            ; |763| 
||         MVK     .S1     0x300,A6          ; |763| 

$C$RL60:   ; CALL OCCURS {_WriteDARAM__FUsPvT1} {0}  ; |763| 
	.dwpsn	file "test_c.cpp",line 764,column 3,is_stmt
;----------------------------------------------------------------------
; 764 | while((buf0[0] != 0x5a5a5a5a) | (buf1[0] != 0x5a5a5a5a));              
;----------------------------------------------------------------------
           MVK     .L2     1,B4              ; |764| 
           STW     .D2T2   B4,*+SP(16)       ; |764| 
	.dwpsn	file "test_c.cpp",line 765,column 3,is_stmt
;----------------------------------------------------------------------
; 767 | while(Start_dozu_nagr)                                                 
; 769 | memset(buf0,0,sizeof(buf0));                                           
;----------------------------------------------------------------------
$C$DW$439	.dwtag  DW_TAG_TI_branch
	.dwattr $C$DW$439, DW_AT_low_pc(0x00)
	.dwattr $C$DW$439, DW_AT_name("_WriteDARAM__FUsPvT1")
	.dwattr $C$DW$439, DW_AT_TI_call
           CALL    .S1     _WriteDARAM__FUsPvT1 ; |765| 
           ADDKPC  .S2     $C$RL61,B3,3      ; |765| 

           MVK     .L1     0x4,A6            ; |765| 
||         ADD     .D2     SP,16,B4          ; |765| 

$C$RL61:   ; CALL OCCURS {_WriteDARAM__FUsPvT1} {0}  ; |765| 
$C$DW$L$_TestDOZU_Nagr__FPv$6$E:
;*----------------------------------------------------------------------------*
;*   SOFTWARE PIPELINE INFORMATION
;*      Disqualified loop: Software pipelining disabled
;*----------------------------------------------------------------------------*
$C$L71:    
$C$DW$L$_TestDOZU_Nagr__FPv$7$B:
	.dwpsn	file "test_c.cpp",line 770,column 3,is_stmt
           MVKL    .S1     _Start_dozu_nagr,A3
           MVKH    .S1     _Start_dozu_nagr,A3
           LDHU    .D1T1   *A3,A0            ; |770| 
           NOP             4
   [!A0]   BNOP    .S1     $C$L77,5          ; |770| 
           ; BRANCHCC OCCURS {$C$L77}        ; |770| 
$C$DW$L$_TestDOZU_Nagr__FPv$7$E:
;** --------------------------------------------------------------------------*
$C$DW$L$_TestDOZU_Nagr__FPv$8$B:
	.dwpsn	file "test_c.cpp",line 771,column 3,is_stmt
;----------------------------------------------------------------------
; 771 | buf0[1]=X;                                                             
;----------------------------------------------------------------------
	.dwpsn	file "test_c.cpp",line 773,column 5,is_stmt
;----------------------------------------------------------------------
; 773 | for (int i=2;i<L;i++)                                                  
;----------------------------------------------------------------------
$C$DW$440	.dwtag  DW_TAG_TI_branch
	.dwattr $C$DW$440, DW_AT_low_pc(0x00)
	.dwattr $C$DW$440, DW_AT_name("_ReadDARAM0__FUsPvT1")
	.dwattr $C$DW$440, DW_AT_TI_call
           CALL    .S1     _ReadDARAM0__FUsPvT1 ; |773| 
           ADDKPC  .S2     $C$RL62,B3,3      ; |773| 

           MVK     .L1     0x4,A4            ; |773| 
||         ADD     .D2     SP,16,B4          ; |773| 
||         MVK     .S1     0x4,A6            ; |773| 

$C$RL62:   ; CALL OCCURS {_ReadDARAM0__FUsPvT1} {0}  ; |773| 
	.dwpsn	file "test_c.cpp",line 774,column 5,is_stmt
$C$DW$441	.dwtag  DW_TAG_TI_branch
	.dwattr $C$DW$441, DW_AT_low_pc(0x00)
	.dwattr $C$DW$441, DW_AT_name("_ReadDARAM1__FUsPvT1")
	.dwattr $C$DW$441, DW_AT_TI_call
           CALL    .S1     _ReadDARAM1__FUsPvT1 ; |774| 
           MVK     .S2     784,B4            ; |774| 
           ADDKPC  .S2     $C$RL63,B3,2      ; |774| 

           ADD     .L2     B4,SP,B4          ; |774| 
||         MVK     .L1     0x4,A4            ; |774| 
||         MVK     .S1     0x4,A6            ; |774| 

$C$RL63:   ; CALL OCCURS {_ReadDARAM1__FUsPvT1} {0}  ; |774| 
	.dwpsn	file "test_c.cpp",line 775,column 4,is_stmt
;----------------------------------------------------------------------
; 775 | buf0[i]=buf0[i-1]*0x66467329+0xA6549873;                               
;----------------------------------------------------------------------
           LDW     .D2T2   *+SP(16),B4       ; |775| 
           LDW     .D2T2   *+SP(784),B6      ; |775| 
           NOP             3
           CMPEQ   .L2     B4,0,B5           ; |775| 
           CMPEQ   .L2     B6,0,B4           ; |775| 
           OR      .L2     B4,B5,B0          ; |775| 
   [ B0]   BNOP    .S1     $C$L71,5          ; |775| 
           ; BRANCHCC OCCURS {$C$L71}        ; |775| 
$C$DW$L$_TestDOZU_Nagr__FPv$8$E:
;** --------------------------------------------------------------------------*
$C$DW$L$_TestDOZU_Nagr__FPv$9$B:
	.dwpsn	file "test_c.cpp",line 778,column 3,is_stmt
;----------------------------------------------------------------------
; 778 | WriteDARAM(4,buf0,L*4);                                                
;----------------------------------------------------------------------
$C$DW$442	.dwtag  DW_TAG_TI_branch
	.dwattr $C$DW$442, DW_AT_low_pc(0x00)
	.dwattr $C$DW$442, DW_AT_name("_ReadDARAM0__FUsPvT1")
	.dwattr $C$DW$442, DW_AT_TI_call
           CALL    .S1     _ReadDARAM0__FUsPvT1 ; |778| 
           ADDKPC  .S2     $C$RL64,B3,3      ; |778| 

           MVK     .L1     0x4,A4            ; |778| 
||         ADD     .D2     SP,16,B4          ; |778| 
||         MVK     .S1     0x300,A6          ; |778| 

$C$RL64:   ; CALL OCCURS {_ReadDARAM0__FUsPvT1} {0}  ; |778| 
	.dwpsn	file "test_c.cpp",line 779,column 3,is_stmt
;----------------------------------------------------------------------
; 779 | buf0[0]=1;                                                             
; 780 | WriteDARAM(4,buf0,4);                                                  
;----------------------------------------------------------------------
$C$DW$443	.dwtag  DW_TAG_TI_branch
	.dwattr $C$DW$443, DW_AT_low_pc(0x00)
	.dwattr $C$DW$443, DW_AT_name("_ReadDARAM1__FUsPvT1")
	.dwattr $C$DW$443, DW_AT_TI_call
           CALL    .S1     _ReadDARAM1__FUsPvT1 ; |779| 
           MVK     .S1     784,A3            ; |779| 
           ADDKPC  .S2     $C$RL65,B3,2      ; |779| 

           MVK     .L1     0x4,A4            ; |779| 
||         MVK     .S1     0x300,A6          ; |779| 
||         ADD     .L2X    A3,SP,B4          ; |779| 

$C$RL65:   ; CALL OCCURS {_ReadDARAM1__FUsPvT1} {0}  ; |779| 

$C$DW$444	.dwtag  DW_TAG_lexical_block, DW_AT_low_pc(0x00), DW_AT_high_pc(0x00)
$C$DW$445	.dwtag  DW_TAG_variable, DW_AT_name("i")
	.dwattr $C$DW$445, DW_AT_TI_symbol_name("_i")
	.dwattr $C$DW$445, DW_AT_type(*$C$DW$T$10)
	.dwattr $C$DW$445, DW_AT_location[DW_OP_breg31 1556]
	.dwpsn	file "test_c.cpp",line 781,column 12,is_stmt
           MVK     .L2     2,B4              ; |781| 
           STW     .D2T2   B4,*+SP(1556)     ; |781| 
	.dwpsn	file "test_c.cpp",line 781,column 16,is_stmt
           MVK     .S2     190,B5            ; |781| 
           CMPLT   .L2     B4,B5,B0          ; |781| 
   [!B0]   BNOP    .S1     $C$L75,5          ; |781| 
           ; BRANCHCC OCCURS {$C$L75}        ; |781| 
$C$DW$L$_TestDOZU_Nagr__FPv$9$E:
;*----------------------------------------------------------------------------*
;*   SOFTWARE PIPELINE INFORMATION
;*      Disqualified loop: Software pipelining disabled
;*----------------------------------------------------------------------------*
$C$L72:    
$C$DW$L$_TestDOZU_Nagr__FPv$10$B:
	.dwpsn	file "test_c.cpp",line 783,column 4,is_stmt
;----------------------------------------------------------------------
; 783 | do                                                                     
;----------------------------------------------------------------------
           SUB     .L2     B4,1,B4           ; |783| 
           ADDAW   .D2     SP,B4,B4          ; |783| 
